(ccopy_reg
_reconstructor
p0
(cnltk.classify.naivebayes
NaiveBayesClassifier
p1
c__builtin__
object
p2
Ntp3
Rp4
(dp5
S'_labels'
p6
(lp7
S'AaronPressman'
p8
aS'AlanCrosby'
p9
aS'AlexanderSmith'
p10
aS'BenjaminKangLim'
p11
aS'BernardHickey'
p12
asS'_feature_probdist'
p13
(dp14
(g10
S'tri:(analyst,say,that)>0'
p15
tp16
g0
(cnltk.probability
ELEProbDist
p17
g2
Ntp18
Rp19
(dp20
S'_gamma'
p21
F0.5
sS'_N'
p22
I45
sS'_freqdist'
p23
g0
(cnltk.probability
FreqDist
p24
c__builtin__
dict
p25
(dp26
I00
I45
stp27
Rp28
(dp29
g22
I45
sS'_max_cache'
p30
NsS'_item_cache'
p31
NsS'_Nr_cache'
p32
NsbsS'_bins'
p33
I3
sS'_divisor'
p34
F46.5
sbs(g8
S'tri:(.,china,have)>0'
p35
tp36
g0
(g17
g2
Ntp37
Rp38
(dp39
g21
F0.5
sg22
I45
sg23
g0
(g24
g25
(dp40
I00
I45
stp41
Rp42
(dp43
g22
I45
sg30
Nsg31
Nsg32
Nsbsg33
I3
sg34
F46.5
sbs(g11
S"skip:(the,'',a)>0"
p44
tp45
g0
(g17
g2
Ntp46
Rp47
(dp48
g21
F0.5
sg22
I45
sg23
g0
(g24
g25
(dp49
I00
I45
stp50
Rp51
(dp52
g22
I45
sg30
Nsg31
Nsg32
Nsbsg33
I3
sg34
F46.5
sbs(g9
S'wrd:with>0'
p53
tp54
g0
(g17
g2
Ntp55
Rp56
(dp57
g21
F0.5
sg22
I45
sg23
g0
(g24
g25
(dp58
I00
I2
sI01
I43
stp59
Rp60
(dp61
g22
I45
sg30
Nsg31
Nsg32
Nsbsg33
I3
sg34
F46.5
sbs(g12
S'skip:(,,the,association)>0'
p62
tp63
g0
(g17
g2
Ntp64
Rp65
(dp66
g21
F0.5
sg22
I45
sg23
g0
(g24
g25
(dp67
I00
I45
stp68
Rp69
(dp70
g22
I45
sg30
Nsg31
Nsg32
Nsbsg33
I3
sg34
F46.5
sbs(g8
S'skip:(,,in,,)>0'
p71
tp72
g0
(g17
g2
Ntp73
Rp74
(dp75
g21
F0.5
sg22
I45
sg23
g0
(g24
g25
(dp76
I00
I44
sI01
I1
stp77
Rp78
(dp79
g22
I45
sg30
Nsg31
Nsg32
Nsbsg33
I3
sg34
F46.5
sbs(g9
S'skip:(a,million,first)>0'
p80
tp81
g0
(g17
g2
Ntp82
Rp83
(dp84
g21
F0.5
sg22
I45
sg23
g0
(g24
g25
(dp85
I00
I45
stp86
Rp87
(dp88
g22
I45
sg30
Nsg31
Nsg32
Nsbsg33
I3
sg34
F46.5
sbs(g11
S'tri:(on,the,internet)>0'
p89
tp90
g0
(g17
g2
Ntp91
Rp92
(dp93
g21
F0.5
sg22
I45
sg23
g0
(g24
g25
(dp94
I00
I45
stp95
Rp96
(dp97
g22
I45
sg30
Nsg31
Nsg32
Nsbsg33
I3
sg34
F46.5
sbs(g8
S'tri:(at,a,$)>0'
p98
tp99
g0
(g17
g2
Ntp100
Rp101
(dp102
g21
F0.5
sg22
I45
sg23
g0
(g24
g25
(dp103
I00
I45
stp104
Rp105
(dp106
g22
I45
sg30
Nsg31
Nsg32
Nsbsg33
I3
sg34
F46.5
sbs(g9
S'bi:(,,say)>0'
p107
tp108
g0
(g17
g2
Ntp109
Rp110
(dp111
g21
F0.5
sg22
I45
sg23
g0
(g24
g25
(dp112
I00
I38
sI01
I7
stp113
Rp114
(dp115
g22
I45
sg30
Nsg31
Nsg32
Nsbsg33
I3
sg34
F46.5
sbs(g10
S'skip:(the,,,a)>0'
p116
tp117
g0
(g17
g2
Ntp118
Rp119
(dp120
g21
F0.5
sg22
I45
sg23
g0
(g24
g25
(dp121
I00
I42
sI01
I3
stp122
Rp123
(dp124
g22
I45
sg30
Nsg31
Nsg32
Nsbsg33
I3
sg34
F46.5
sbs(g11
S'tri:(,,add,that)>0'
p125
tp126
g0
(g17
g2
Ntp127
Rp128
(dp129
g21
F0.5
sg22
I45
sg23
g0
(g24
g25
(dp130
I00
I37
sI01
I8
stp131
Rp132
(dp133
g22
I45
sg30
Nsg31
Nsg32
Nsbsg33
I3
sg34
F46.5
sbs(g12
S'tri:(year,in,prison)>0'
p134
tp135
g0
(g17
g2
Ntp136
Rp137
(dp138
g21
F0.5
sg22
I45
sg23
g0
(g24
g25
(dp139
I00
I45
stp140
Rp141
(dp142
g22
I45
sg30
Nsg31
Nsg32
Nsbsg33
I3
sg34
F46.5
sbs(g8
S'skip:(.,be,to)>0'
p143
tp144
g0
(g17
g2
Ntp145
Rp146
(dp147
g21
F0.5
sg22
I45
sg23
g0
(g24
g25
(dp148
I00
I45
stp149
Rp150
(dp151
g22
I45
sg30
Nsg31
Nsg32
Nsbsg33
I3
sg34
F46.5
sbs(g9
S'tri:(he,say,.)>0'
p152
tp153
g0
(g17
g2
Ntp154
Rp155
(dp156
g21
F0.5
sg22
I45
sg23
g0
(g24
g25
(dp157
I00
I39
sI01
I6
stp158
Rp159
(dp160
g22
I45
sg30
Nsg31
Nsg32
Nsbsg33
I3
sg34
F46.5
sbs(g11
g116
tp161
g0
(g17
g2
Ntp162
Rp163
(dp164
g21
F0.5
sg22
I45
sg23
g0
(g24
g25
(dp165
I00
I45
stp166
Rp167
(dp168
g22
I45
sg30
Nsg31
Nsg32
Nsbsg33
I3
sg34
F46.5
sbs(g8
S'bi:(the,czech)>0'
p169
tp170
g0
(g17
g2
Ntp171
Rp172
(dp173
g21
F0.5
sg22
I45
sg23
g0
(g24
g25
(dp174
I00
I45
stp175
Rp176
(dp177
g22
I45
sg30
Nsg31
Nsg32
Nsbsg33
I3
sg34
F46.5
sbs(g10
S'skip:(for,,,,)>0'
p178
tp179
g0
(g17
g2
Ntp180
Rp181
(dp182
g21
F0.5
sg22
I45
sg23
g0
(g24
g25
(dp183
I00
I45
stp184
Rp185
(dp186
g22
I45
sg30
Nsg31
Nsg32
Nsbsg33
I3
sg34
F46.5
sbs(g11
S'bi:(a,$)>0'
p187
tp188
g0
(g17
g2
Ntp189
Rp190
(dp191
g21
F0.5
sg22
I45
sg23
g0
(g24
g25
(dp192
I00
I43
sI01
I2
stp193
Rp194
(dp195
g22
I45
sg30
Nsg31
Nsg32
Nsbsg33
I3
sg34
F46.5
sbs(g10
g35
tp196
g0
(g17
g2
Ntp197
Rp198
(dp199
g21
F0.5
sg22
I45
sg23
g0
(g24
g25
(dp200
I00
I45
stp201
Rp202
(dp203
g22
I45
sg30
Nsg31
Nsg32
Nsbsg33
I3
sg34
F46.5
sbs(g9
S'tri:(prague,newsroom,,)>0'
p204
tp205
g0
(g17
g2
Ntp206
Rp207
(dp208
g21
F0.5
sg22
I45
sg23
g0
(g24
g25
(dp209
I00
I32
sI01
I13
stp210
Rp211
(dp212
g22
I45
sg30
Nsg31
Nsg32
Nsbsg33
I3
sg34
F46.5
sbs(g10
S'tri:(the,first,quarter)>0'
p213
tp214
g0
(g17
g2
Ntp215
Rp216
(dp217
g21
F0.5
sg22
I45
sg23
g0
(g24
g25
(dp218
I00
I42
sI01
I3
stp219
Rp220
(dp221
g22
I45
sg30
Nsg31
Nsg32
Nsbsg33
I3
sg34
F46.5
sbs(g8
S'tri:(minister,vaclav,klaus)>0'
p222
tp223
g0
(g17
g2
Ntp224
Rp225
(dp226
g21
F0.5
sg22
I45
sg23
g0
(g24
g25
(dp227
I00
I45
stp228
Rp229
(dp230
g22
I45
sg30
Nsg31
Nsg32
Nsbsg33
I3
sg34
F46.5
sbs(g8
S'tri:(percent,of,the)>0'
p231
tp232
g0
(g17
g2
Ntp233
Rp234
(dp235
g21
F0.5
sg22
I45
sg23
g0
(g24
g25
(dp236
I00
I45
stp237
Rp238
(dp239
g22
I45
sg30
Nsg31
Nsg32
Nsbsg33
I3
sg34
F46.5
sbs(g11
S"bi:(china,'s)>0"
p240
tp241
g0
(g17
g2
Ntp242
Rp243
(dp244
g21
F0.5
sg22
I45
sg23
g0
(g24
g25
(dp245
I00
I15
sI01
I30
stp246
Rp247
(dp248
g22
I45
sg30
Nsg31
Nsg32
Nsbsg33
I3
sg34
F46.5
sbs(g9
S'tri:(of,the,internet)>0'
p249
tp250
g0
(g17
g2
Ntp251
Rp252
(dp253
g21
F0.5
sg22
I45
sg23
g0
(g24
g25
(dp254
I00
I45
stp255
Rp256
(dp257
g22
I45
sg30
Nsg31
Nsg32
Nsbsg33
I3
sg34
F46.5
sbs(g10
S"skip:('',,,chief)>0"
p258
tp259
g0
(g17
g2
Ntp260
Rp261
(dp262
g21
F0.5
sg22
I45
sg23
g0
(g24
g25
(dp263
I00
I38
sI01
I7
stp264
Rp265
(dp266
g22
I45
sg30
Nsg31
Nsg32
Nsbsg33
I3
sg34
F46.5
sbs(g10
S'skip:(,,say,to)>0'
p267
tp268
g0
(g17
g2
Ntp269
Rp270
(dp271
g21
F0.5
sg22
I45
sg23
g0
(g24
g25
(dp272
I00
I45
stp273
Rp274
(dp275
g22
I45
sg30
Nsg31
Nsg32
Nsbsg33
I3
sg34
F46.5
sbs(g9
g231
tp276
g0
(g17
g2
Ntp277
Rp278
(dp279
g21
F0.5
sg22
I45
sg23
g0
(g24
g25
(dp280
I00
I40
sI01
I5
stp281
Rp282
(dp283
g22
I45
sg30
Nsg31
Nsg32
Nsbsg33
I3
sg34
F46.5
sbs(g11
S'bi:(&,amp)>0'
p284
tp285
g0
(g17
g2
Ntp286
Rp287
(dp288
g21
F0.5
sg22
I45
sg23
g0
(g24
g25
(dp289
I00
I45
stp290
Rp291
(dp292
g22
I45
sg30
Nsg31
Nsg32
Nsbsg33
I3
sg34
F46.5
sbs(g12
S'wrd:``>0'
p293
tp294
g0
(g17
g2
Ntp295
Rp296
(dp297
g21
F0.5
sg22
I45
sg23
g0
(g24
g25
(dp298
I00
I22
sI01
I23
stp299
Rp300
(dp301
g22
I45
sg30
Nsg31
Nsg32
Nsbsg33
I3
sg34
F46.5
sbs(g12
S'skip:(billion,$,))>0'
p302
tp303
g0
(g17
g2
Ntp304
Rp305
(dp306
g21
F0.5
sg22
I45
sg23
g0
(g24
g25
(dp307
I00
I40
sI01
I5
stp308
Rp309
(dp310
g22
I45
sg30
Nsg31
Nsg32
Nsbsg33
I3
sg34
F46.5
sbs(g9
S'bi:(have,be)>0'
p311
tp312
g0
(g17
g2
Ntp313
Rp314
(dp315
g21
F0.5
sg22
I45
sg23
g0
(g24
g25
(dp316
I00
I26
sI01
I19
stp317
Rp318
(dp319
g22
I45
sg30
Nsg31
Nsg32
Nsbsg33
I3
sg34
F46.5
sbs(g11
S'bi:(.,but)>0'
p320
tp321
g0
(g17
g2
Ntp322
Rp323
(dp324
g21
F0.5
sg22
I45
sg23
g0
(g24
g25
(dp325
I00
I32
sI01
I13
stp326
Rp327
(dp328
g22
I45
sg30
Nsg31
Nsg32
Nsbsg33
I3
sg34
F46.5
sbs(g11
S'bi:(amp,;)>0'
p329
tp330
g0
(g17
g2
Ntp331
Rp332
(dp333
g21
F0.5
sg22
I45
sg23
g0
(g24
g25
(dp334
I00
I45
stp335
Rp336
(dp337
g22
I45
sg30
Nsg31
Nsg32
Nsbsg33
I3
sg34
F46.5
sbs(g12
S'skip:(,,,,()>0'
p338
tp339
g0
(g17
g2
Ntp340
Rp341
(dp342
g21
F0.5
sg22
I45
sg23
g0
(g24
g25
(dp343
I00
I45
stp344
Rp345
(dp346
g22
I45
sg30
Nsg31
Nsg32
Nsbsg33
I3
sg34
F46.5
sbs(g11
S'skip:(at,;,.)>0'
p347
tp348
g0
(g17
g2
Ntp349
Rp350
(dp351
g21
F0.5
sg22
I45
sg23
g0
(g24
g25
(dp352
I00
I45
stp353
Rp354
(dp355
g22
I45
sg30
Nsg31
Nsg32
Nsbsg33
I3
sg34
F46.5
sbs(g9
S'wrd:that>0'
p356
tp357
g0
(g17
g2
Ntp358
Rp359
(dp360
g21
F0.5
sg22
I45
sg23
g0
(g24
g25
(dp361
I00
I3
sI01
I42
stp362
Rp363
(dp364
g22
I45
sg30
Nsg31
Nsg32
Nsbsg33
I3
sg34
F46.5
sbs(g11
S'bi:(he,say)>0'
p365
tp366
g0
(g17
g2
Ntp367
Rp368
(dp369
g21
F0.5
sg22
I45
sg23
g0
(g24
g25
(dp370
I00
I37
sI01
I8
stp371
Rp372
(dp373
g22
I45
sg30
Nsg31
Nsg32
Nsbsg33
I3
sg34
F46.5
sbs(g10
S'skip:(,,(,,)>0'
p374
tp375
g0
(g17
g2
Ntp376
Rp377
(dp378
g21
F0.5
sg22
I45
sg23
g0
(g24
g25
(dp379
I00
I45
stp380
Rp381
(dp382
g22
I45
sg30
Nsg31
Nsg32
Nsbsg33
I3
sg34
F46.5
sbs(g9
S'tri:(for,the,year)>0'
p383
tp384
g0
(g17
g2
Ntp385
Rp386
(dp387
g21
F0.5
sg22
I45
sg23
g0
(g24
g25
(dp388
I00
I45
stp389
Rp390
(dp391
g22
I45
sg30
Nsg31
Nsg32
Nsbsg33
I3
sg34
F46.5
sbs(g9
S'tri:(in,the,first)>0'
p392
tp393
g0
(g17
g2
Ntp394
Rp395
(dp396
g21
F0.5
sg22
I45
sg23
g0
(g24
g25
(dp397
I00
I30
sI01
I15
stp398
Rp399
(dp400
g22
I45
sg30
Nsg31
Nsg32
Nsbsg33
I3
sg34
F46.5
sbs(g8
g62
tp401
g0
(g17
g2
Ntp402
Rp403
(dp404
g21
F0.5
sg22
I45
sg23
g0
(g24
g25
(dp405
I00
I38
sI01
I7
stp406
Rp407
(dp408
g22
I45
sg30
Nsg31
Nsg32
Nsbsg33
I3
sg34
F46.5
sbs(g8
S'bi:(,,a)>0'
p409
tp410
g0
(g17
g2
Ntp411
Rp412
(dp413
g21
F0.5
sg22
I45
sg23
g0
(g24
g25
(dp414
I00
I22
sI01
I23
stp415
Rp416
(dp417
g22
I45
sg30
Nsg31
Nsg32
Nsbsg33
I3
sg34
F46.5
sbs(g11
S'tri:(the,first,half)>0'
p418
tp419
g0
(g17
g2
Ntp420
Rp421
(dp422
g21
F0.5
sg22
I45
sg23
g0
(g24
g25
(dp423
I00
I43
sI01
I2
stp424
Rp425
(dp426
g22
I45
sg30
Nsg31
Nsg32
Nsbsg33
I3
sg34
F46.5
sbs(g11
S"skip:('',,,the)>0"
p427
tp428
g0
(g17
g2
Ntp429
Rp430
(dp431
g21
F0.5
sg22
I45
sg23
g0
(g24
g25
(dp432
I00
I43
sI01
I2
stp433
Rp434
(dp435
g22
I45
sg30
Nsg31
Nsg32
Nsbsg33
I3
sg34
F46.5
sbs(g9
S'skip:(the,the,the)>0'
p436
tp437
g0
(g17
g2
Ntp438
Rp439
(dp440
g21
F0.5
sg22
I45
sg23
g0
(g24
g25
(dp441
I00
I36
sI01
I9
stp442
Rp443
(dp444
g22
I45
sg30
Nsg31
Nsg32
Nsbsg33
I3
sg34
F46.5
sbs(g11
S'tri:(the,prague,stock)>0'
p445
tp446
g0
(g17
g2
Ntp447
Rp448
(dp449
g21
F0.5
sg22
I45
sg23
g0
(g24
g25
(dp450
I00
I45
stp451
Rp452
(dp453
g22
I45
sg30
Nsg31
Nsg32
Nsbsg33
I3
sg34
F46.5
sbs(g8
S'skip:(at,of,.)>0'
p454
tp455
g0
(g17
g2
Ntp456
Rp457
(dp458
g21
F0.5
sg22
I45
sg23
g0
(g24
g25
(dp459
I00
I44
sI01
I1
stp460
Rp461
(dp462
g22
I45
sg30
Nsg31
Nsg32
Nsbsg33
I3
sg34
F46.5
sbs(g9
S"skip:(``,,,'')>0"
p463
tp464
g0
(g17
g2
Ntp465
Rp466
(dp467
g21
F0.5
sg22
I45
sg23
g0
(g24
g25
(dp468
I00
I45
stp469
Rp470
(dp471
g22
I45
sg30
Nsg31
Nsg32
Nsbsg33
I3
sg34
F46.5
sbs(g11
S'bi:(at,the)>0'
p472
tp473
g0
(g17
g2
Ntp474
Rp475
(dp476
g21
F0.5
sg22
I45
sg23
g0
(g24
g25
(dp477
I00
I31
sI01
I14
stp478
Rp479
(dp480
g22
I45
sg30
Nsg31
Nsg32
Nsbsg33
I3
sg34
F46.5
sbs(g8
S'tri:(billion,crown,,)>0'
p481
tp482
g0
(g17
g2
Ntp483
Rp484
(dp485
g21
F0.5
sg22
I45
sg23
g0
(g24
g25
(dp486
I00
I45
stp487
Rp488
(dp489
g22
I45
sg30
Nsg31
Nsg32
Nsbsg33
I3
sg34
F46.5
sbs(g12
g347
tp490
g0
(g17
g2
Ntp491
Rp492
(dp493
g21
F0.5
sg22
I45
sg23
g0
(g24
g25
(dp494
I00
I45
stp495
Rp496
(dp497
g22
I45
sg30
Nsg31
Nsg32
Nsbsg33
I3
sg34
F46.5
sbs(g9
S'tri:(the,internet,.)>0'
p498
tp499
g0
(g17
g2
Ntp500
Rp501
(dp502
g21
F0.5
sg22
I45
sg23
g0
(g24
g25
(dp503
I00
I45
stp504
Rp505
(dp506
g22
I45
sg30
Nsg31
Nsg32
Nsbsg33
I3
sg34
F46.5
sbs(g8
S'skip:(,,the,of)>0'
p507
tp508
g0
(g17
g2
Ntp509
Rp510
(dp511
g21
F0.5
sg22
I45
sg23
g0
(g24
g25
(dp512
I00
I44
sI01
I1
stp513
Rp514
(dp515
g22
I45
sg30
Nsg31
Nsg32
Nsbsg33
I3
sg34
F46.5
sbs(g10
S'skip:(say,,,the)>0'
p516
tp517
g0
(g17
g2
Ntp518
Rp519
(dp520
g21
F0.5
sg22
I45
sg23
g0
(g24
g25
(dp521
I00
I44
sI01
I1
stp522
Rp523
(dp524
g22
I45
sg30
Nsg31
Nsg32
Nsbsg33
I3
sg34
F46.5
sbs(g11
S'wrd:profit>0'
p525
tp526
g0
(g17
g2
Ntp527
Rp528
(dp529
g21
F0.5
sg22
I45
sg23
g0
(g24
g25
(dp530
I00
I43
sI01
I2
stp531
Rp532
(dp533
g22
I45
sg30
Nsg31
Nsg32
Nsbsg33
I3
sg34
F46.5
sbs(g12
S'skip:(,,say,the)>0'
p534
tp535
g0
(g17
g2
Ntp536
Rp537
(dp538
g21
F0.5
sg22
I45
sg23
g0
(g24
g25
(dp539
I00
I39
sI01
I6
stp540
Rp541
(dp542
g22
I45
sg30
Nsg31
Nsg32
Nsbsg33
I3
sg34
F46.5
sbs(g10
g427
tp543
g0
(g17
g2
Ntp544
Rp545
(dp546
g21
F0.5
sg22
I45
sg23
g0
(g24
g25
(dp547
I00
I45
stp548
Rp549
(dp550
g22
I45
sg30
Nsg31
Nsg32
Nsbsg33
I3
sg34
F46.5
sbs(g11
S'skip:(.,the,the)>0'
p551
tp552
g0
(g17
g2
Ntp553
Rp554
(dp555
g21
F0.5
sg22
I45
sg23
g0
(g24
g25
(dp556
I00
I42
sI01
I3
stp557
Rp558
(dp559
g22
I45
sg30
Nsg31
Nsg32
Nsbsg33
I3
sg34
F46.5
sbs(g8
S'bi:(.,``)>0'
p560
tp561
g0
(g17
g2
Ntp562
Rp563
(dp564
g21
F0.5
sg22
I45
sg23
g0
(g24
g25
(dp565
I00
I19
sI01
I26
stp566
Rp567
(dp568
g22
I45
sg30
Nsg31
Nsg32
Nsbsg33
I3
sg34
F46.5
sbs(g8
g152
tp569
g0
(g17
g2
Ntp570
Rp571
(dp572
g21
F0.5
sg22
I45
sg23
g0
(g24
g25
(dp573
I00
I25
sI01
I20
stp574
Rp575
(dp576
g22
I45
sg30
Nsg31
Nsg32
Nsbsg33
I3
sg34
F46.5
sbs(g10
S'skip:(charge,to,government)>0'
p577
tp578
g0
(g17
g2
Ntp579
Rp580
(dp581
g21
F0.5
sg22
I45
sg23
g0
(g24
g25
(dp582
I00
I45
stp583
Rp584
(dp585
g22
I45
sg30
Nsg31
Nsg32
Nsbsg33
I3
sg34
F46.5
sbs(g9
g507
tp586
g0
(g17
g2
Ntp587
Rp588
(dp589
g21
F0.5
sg22
I45
sg23
g0
(g24
g25
(dp590
I00
I38
sI01
I7
stp591
Rp592
(dp593
g22
I45
sg30
Nsg31
Nsg32
Nsbsg33
I3
sg34
F46.5
sbs(g10
S'skip:(the,exchange,))>0'
p594
tp595
g0
(g17
g2
Ntp596
Rp597
(dp598
g21
F0.5
sg22
I45
sg23
g0
(g24
g25
(dp599
I00
I45
stp600
Rp601
(dp602
g22
I45
sg30
Nsg31
Nsg32
Nsbsg33
I3
sg34
F46.5
sbs(g12
S'skip:(the,the,.)>0'
p603
tp604
g0
(g17
g2
Ntp605
Rp606
(dp607
g21
F0.5
sg22
I45
sg23
g0
(g24
g25
(dp608
I00
I43
sI01
I2
stp609
Rp610
(dp611
g22
I45
sg30
Nsg31
Nsg32
Nsbsg33
I3
sg34
F46.5
sbs(g10
g454
tp612
g0
(g17
g2
Ntp613
Rp614
(dp615
g21
F0.5
sg22
I45
sg23
g0
(g24
g25
(dp616
I00
I45
stp617
Rp618
(dp619
g22
I45
sg30
Nsg31
Nsg32
Nsbsg33
I3
sg34
F46.5
sbs(g9
S'skip:(;,(,))>0'
p620
tp621
g0
(g17
g2
Ntp622
Rp623
(dp624
g21
F0.5
sg22
I45
sg23
g0
(g24
g25
(dp625
I00
I40
sI01
I5
stp626
Rp627
(dp628
g22
I45
sg30
Nsg31
Nsg32
Nsbsg33
I3
sg34
F46.5
sbs(g12
g436
tp629
g0
(g17
g2
Ntp630
Rp631
(dp632
g21
F0.5
sg22
I45
sg23
g0
(g24
g25
(dp633
I00
I39
sI01
I6
stp634
Rp635
(dp636
g22
I45
sg30
Nsg31
Nsg32
Nsbsg33
I3
sg34
F46.5
sbs(g11
S'skip:(,,the,the)>0'
p637
tp638
g0
(g17
g2
Ntp639
Rp640
(dp641
g21
F0.5
sg22
I45
sg23
g0
(g24
g25
(dp642
I00
I42
sI01
I3
stp643
Rp644
(dp645
g22
I45
sg30
Nsg31
Nsg32
Nsbsg33
I3
sg34
F46.5
sbs(g11
S'skip:(april,;,()>0'
p646
tp647
g0
(g17
g2
Ntp648
Rp649
(dp650
g21
F0.5
sg22
I45
sg23
g0
(g24
g25
(dp651
I00
I45
stp652
Rp653
(dp654
g22
I45
sg30
Nsg31
Nsg32
Nsbsg33
I3
sg34
F46.5
sbs(g11
S'tri:(to,overthrow,the)>0'
p655
tp656
g0
(g17
g2
Ntp657
Rp658
(dp659
g21
F0.5
sg22
I45
sg23
g0
(g24
g25
(dp660
I00
I38
sI01
I7
stp661
Rp662
(dp663
g22
I45
sg30
Nsg31
Nsg32
Nsbsg33
I3
sg34
F46.5
sbs(g8
S'skip:(.,rank,the)>0'
p664
tp665
g0
(g17
g2
Ntp666
Rp667
(dp668
g21
F0.5
sg22
I45
sg23
g0
(g24
g25
(dp669
I00
I45
stp670
Rp671
(dp672
g22
I45
sg30
Nsg31
Nsg32
Nsbsg33
I3
sg34
F46.5
sbs(g12
S'wrd:would>0'
p673
tp674
g0
(g17
g2
Ntp675
Rp676
(dp677
g21
F0.5
sg22
I45
sg23
g0
(g24
g25
(dp678
I00
I5
sI01
I40
stp679
Rp680
(dp681
g22
I45
sg30
Nsg31
Nsg32
Nsbsg33
I3
sg34
F46.5
sbs(g8
S'bi:(the,internet)>0'
p682
tp683
g0
(g17
g2
Ntp684
Rp685
(dp686
g21
F0.5
sg22
I45
sg23
g0
(g24
g25
(dp687
I00
I19
sI01
I26
stp688
Rp689
(dp690
g22
I45
sg30
Nsg31
Nsg32
Nsbsg33
I3
sg34
F46.5
sbs(g11
g577
tp691
g0
(g17
g2
Ntp692
Rp693
(dp694
g21
F0.5
sg22
I45
sg23
g0
(g24
g25
(dp695
I00
I39
sI01
I6
stp696
Rp697
(dp698
g22
I45
sg30
Nsg31
Nsg32
Nsbsg33
I3
sg34
F46.5
sbs(g9
S'tri:(the,newspaper,say)>0'
p699
tp700
g0
(g17
g2
Ntp701
Rp702
(dp703
g21
F0.5
sg22
I45
sg23
g0
(g24
g25
(dp704
I00
I45
stp705
Rp706
(dp707
g22
I45
sg30
Nsg31
Nsg32
Nsbsg33
I3
sg34
F46.5
sbs(g12
g525
tp708
g0
(g17
g2
Ntp709
Rp710
(dp711
g21
F0.5
sg22
I45
sg23
g0
(g24
g25
(dp712
I00
I11
sI01
I34
stp713
Rp714
(dp715
g22
I45
sg30
Nsg31
Nsg32
Nsbsg33
I3
sg34
F46.5
sbs(g11
S'tri:(in,prison,for)>0'
p716
tp717
g0
(g17
g2
Ntp718
Rp719
(dp720
g21
F0.5
sg22
I45
sg23
g0
(g24
g25
(dp721
I00
I36
sI01
I9
stp722
Rp723
(dp724
g22
I45
sg30
Nsg31
Nsg32
Nsbsg33
I3
sg34
F46.5
sbs(g12
g551
tp725
g0
(g17
g2
Ntp726
Rp727
(dp728
g21
F0.5
sg22
I45
sg23
g0
(g24
g25
(dp729
I00
I42
sI01
I3
stp730
Rp731
(dp732
g22
I45
sg30
Nsg31
Nsg32
Nsbsg33
I3
sg34
F46.5
sbs(g8
S'tri:(--,sydney,newsroom)>0'
p733
tp734
g0
(g17
g2
Ntp735
Rp736
(dp737
g21
F0.5
sg22
I45
sg23
g0
(g24
g25
(dp738
I00
I45
stp739
Rp740
(dp741
g22
I45
sg30
Nsg31
Nsg32
Nsbsg33
I3
sg34
F46.5
sbs(g8
S'skip:(a,million,the)>0'
p742
tp743
g0
(g17
g2
Ntp744
Rp745
(dp746
g21
F0.5
sg22
I45
sg23
g0
(g24
g25
(dp747
I00
I45
stp748
Rp749
(dp750
g22
I45
sg30
Nsg31
Nsg32
Nsbsg33
I3
sg34
F46.5
sbs(g11
g507
tp751
g0
(g17
g2
Ntp752
Rp753
(dp754
g21
F0.5
sg22
I45
sg23
g0
(g24
g25
(dp755
I00
I41
sI01
I4
stp756
Rp757
(dp758
g22
I45
sg30
Nsg31
Nsg32
Nsbsg33
I3
sg34
F46.5
sbs(g12
g80
tp759
g0
(g17
g2
Ntp760
Rp761
(dp762
g21
F0.5
sg22
I45
sg23
g0
(g24
g25
(dp763
I00
I37
sI01
I8
stp764
Rp765
(dp766
g22
I45
sg30
Nsg31
Nsg32
Nsbsg33
I3
sg34
F46.5
sbs(g12
S'tri:(newsroom,,,42-2-2423-0003)>0'
p767
tp768
g0
(g17
g2
Ntp769
Rp770
(dp771
g21
F0.5
sg22
I45
sg23
g0
(g24
g25
(dp772
I00
I45
stp773
Rp774
(dp775
g22
I45
sg30
Nsg31
Nsg32
Nsbsg33
I3
sg34
F46.5
sbs(g12
g311
tp776
g0
(g17
g2
Ntp777
Rp778
(dp779
g21
F0.5
sg22
I45
sg23
g0
(g24
g25
(dp780
I00
I24
sI01
I21
stp781
Rp782
(dp783
g22
I45
sg30
Nsg31
Nsg32
Nsbsg33
I3
sg34
F46.5
sbs(g8
S'bi:(be,a)>0'
p784
tp785
g0
(g17
g2
Ntp786
Rp787
(dp788
g21
F0.5
sg22
I45
sg23
g0
(g24
g25
(dp789
I00
I27
sI01
I18
stp790
Rp791
(dp792
g22
I45
sg30
Nsg31
Nsg32
Nsbsg33
I3
sg34
F46.5
sbs(g12
S'bi:(billion,crown)>0'
p793
tp794
g0
(g17
g2
Ntp795
Rp796
(dp797
g21
F0.5
sg22
I45
sg23
g0
(g24
g25
(dp798
I00
I45
stp799
Rp800
(dp801
g22
I45
sg30
Nsg31
Nsg32
Nsbsg33
I3
sg34
F46.5
sbs(g9
g35
tp802
g0
(g17
g2
Ntp803
Rp804
(dp805
g21
F0.5
sg22
I45
sg23
g0
(g24
g25
(dp806
I00
I45
stp807
Rp808
(dp809
g22
I45
sg30
Nsg31
Nsg32
Nsbsg33
I3
sg34
F46.5
sbs(g9
S'tri:(the,supreme,court)>0'
p810
tp811
g0
(g17
g2
Ntp812
Rp813
(dp814
g21
F0.5
sg22
I45
sg23
g0
(g24
g25
(dp815
I00
I45
stp816
Rp817
(dp818
g22
I45
sg30
Nsg31
Nsg32
Nsbsg33
I3
sg34
F46.5
sbs(g12
g187
tp819
g0
(g17
g2
Ntp820
Rp821
(dp822
g21
F0.5
sg22
I45
sg23
g0
(g24
g25
(dp823
I00
I10
sI01
I35
stp824
Rp825
(dp826
g22
I45
sg30
Nsg31
Nsg32
Nsbsg33
I3
sg34
F46.5
sbs(g9
S'skip:(the,.,,)>0'
p827
tp828
g0
(g17
g2
Ntp829
Rp830
(dp831
g21
F0.5
sg22
I45
sg23
g0
(g24
g25
(dp832
I00
I43
sI01
I2
stp833
Rp834
(dp835
g22
I45
sg30
Nsg31
Nsg32
Nsbsg33
I3
sg34
F46.5
sbs(g9
S'skip:(the,be,the)>0'
p836
tp837
g0
(g17
g2
Ntp838
Rp839
(dp840
g21
F0.5
sg22
I45
sg23
g0
(g24
g25
(dp841
I00
I43
sI01
I2
stp842
Rp843
(dp844
g22
I45
sg30
Nsg31
Nsg32
Nsbsg33
I3
sg34
F46.5
sbs(g12
S'skip:(already,year,for)>0'
p845
tp846
g0
(g17
g2
Ntp847
Rp848
(dp849
g21
F0.5
sg22
I45
sg23
g0
(g24
g25
(dp850
I00
I45
stp851
Rp852
(dp853
g22
I45
sg30
Nsg31
Nsg32
Nsbsg33
I3
sg34
F46.5
sbs(g12
g356
tp854
g0
(g17
g2
Ntp855
Rp856
(dp857
g21
F0.5
sg22
I45
sg23
g0
(g24
g25
(dp858
I01
I45
stp859
Rp860
(dp861
g22
I45
sg30
Nsg31
Nsg32
Nsbsg33
I3
sg34
F46.5
sbs(g11
g178
tp862
g0
(g17
g2
Ntp863
Rp864
(dp865
g21
F0.5
sg22
I45
sg23
g0
(g24
g25
(dp866
I00
I39
sI01
I6
stp867
Rp868
(dp869
g22
I45
sg30
Nsg31
Nsg32
Nsbsg33
I3
sg34
F46.5
sbs(g12
S'tri:(he,add,.)>0'
p870
tp871
g0
(g17
g2
Ntp872
Rp873
(dp874
g21
F0.5
sg22
I45
sg23
g0
(g24
g25
(dp875
I00
I42
sI01
I3
stp876
Rp877
(dp878
g22
I45
sg30
Nsg31
Nsg32
Nsbsg33
I3
sg34
F46.5
sbs(g12
S'bi:(the,island)>0'
p879
tp880
g0
(g17
g2
Ntp881
Rp882
(dp883
g21
F0.5
sg22
I45
sg23
g0
(g24
g25
(dp884
I00
I44
sI01
I1
stp885
Rp886
(dp887
g22
I45
sg30
Nsg31
Nsg32
Nsbsg33
I3
sg34
F46.5
sbs(g8
S'bi:(,,and)>0'
p888
tp889
g0
(g17
g2
Ntp890
Rp891
(dp892
g21
F0.5
sg22
I45
sg23
g0
(g24
g25
(dp893
I00
I32
sI01
I13
stp894
Rp895
(dp896
g22
I45
sg30
Nsg31
Nsg32
Nsbsg33
I3
sg34
F46.5
sbs(g9
g445
tp897
g0
(g17
g2
Ntp898
Rp899
(dp900
g21
F0.5
sg22
I45
sg23
g0
(g24
g25
(dp901
I00
I28
sI01
I17
stp902
Rp903
(dp904
g22
I45
sg30
Nsg31
Nsg32
Nsbsg33
I3
sg34
F46.5
sbs(g12
S'skip:(to,,,say)>0'
p905
tp906
g0
(g17
g2
Ntp907
Rp908
(dp909
g21
F0.5
sg22
I45
sg23
g0
(g24
g25
(dp910
I00
I40
sI01
I5
stp911
Rp912
(dp913
g22
I45
sg30
Nsg31
Nsg32
Nsbsg33
I3
sg34
F46.5
sbs(g9
g125
tp914
g0
(g17
g2
Ntp915
Rp916
(dp917
g21
F0.5
sg22
I45
sg23
g0
(g24
g25
(dp918
I00
I42
sI01
I3
stp919
Rp920
(dp921
g22
I45
sg30
Nsg31
Nsg32
Nsbsg33
I3
sg34
F46.5
sbs(g10
g742
tp922
g0
(g17
g2
Ntp923
Rp924
(dp925
g21
F0.5
sg22
I45
sg23
g0
(g24
g25
(dp926
I00
I45
stp927
Rp928
(dp929
g22
I45
sg30
Nsg31
Nsg32
Nsbsg33
I3
sg34
F46.5
sbs(g12
S'wrd:wang>0'
p930
tp931
g0
(g17
g2
Ntp932
Rp933
(dp934
g21
F0.5
sg22
I45
sg23
g0
(g24
g25
(dp935
I00
I45
stp936
Rp937
(dp938
g22
I45
sg30
Nsg31
Nsg32
Nsbsg33
I3
sg34
F46.5
sbs(g8
g930
tp939
g0
(g17
g2
Ntp940
Rp941
(dp942
g21
F0.5
sg22
I45
sg23
g0
(g24
g25
(dp943
I00
I45
stp944
Rp945
(dp946
g22
I45
sg30
Nsg31
Nsg32
Nsbsg33
I3
sg34
F46.5
sbs(g9
S'tri:(say,.,``)>0'
p947
tp948
g0
(g17
g2
Ntp949
Rp950
(dp951
g21
F0.5
sg22
I45
sg23
g0
(g24
g25
(dp952
I00
I42
sI01
I3
stp953
Rp954
(dp955
g22
I45
sg30
Nsg31
Nsg32
Nsbsg33
I3
sg34
F46.5
sbs(g11
g845
tp956
g0
(g17
g2
Ntp957
Rp958
(dp959
g21
F0.5
sg22
I45
sg23
g0
(g24
g25
(dp960
I00
I37
sI01
I8
stp961
Rp962
(dp963
g22
I45
sg30
Nsg31
Nsg32
Nsbsg33
I3
sg34
F46.5
sbs(g11
S'skip:(the,,,say)>0'
p964
tp965
g0
(g17
g2
Ntp966
Rp967
(dp968
g21
F0.5
sg22
I45
sg23
g0
(g24
g25
(dp969
I00
I38
sI01
I7
stp970
Rp971
(dp972
g22
I45
sg30
Nsg31
Nsg32
Nsbsg33
I3
sg34
F46.5
sbs(g8
S'skip:(the,and,the)>0'
p973
tp974
g0
(g17
g2
Ntp975
Rp976
(dp977
g21
F0.5
sg22
I45
sg23
g0
(g24
g25
(dp978
I00
I39
sI01
I6
stp979
Rp980
(dp981
g22
I45
sg30
Nsg31
Nsg32
Nsbsg33
I3
sg34
F46.5
sbs(g11
S'tri:(.s,.,name)>0'
p982
tp983
g0
(g17
g2
Ntp984
Rp985
(dp986
g21
F0.5
sg22
I45
sg23
g0
(g24
g25
(dp987
I00
I45
stp988
Rp989
(dp990
g22
I45
sg30
Nsg31
Nsg32
Nsbsg33
I3
sg34
F46.5
sbs(g8
S'skip:(.,,,the)>0'
p991
tp992
g0
(g17
g2
Ntp993
Rp994
(dp995
g21
F0.5
sg22
I45
sg23
g0
(g24
g25
(dp996
I00
I39
sI01
I6
stp997
Rp998
(dp999
g22
I45
sg30
Nsg31
Nsg32
Nsbsg33
I3
sg34
F46.5
sbs(g11
S'skip:(,,and,,)>0'
p1000
tp1001
g0
(g17
g2
Ntp1002
Rp1003
(dp1004
g21
F0.5
sg22
I45
sg23
g0
(g24
g25
(dp1005
I00
I45
stp1006
Rp1007
(dp1008
g22
I45
sg30
Nsg31
Nsg32
Nsbsg33
I3
sg34
F46.5
sbs(g10
S'skip:(appeal,leader,release)>0'
p1009
tp1010
g0
(g17
g2
Ntp1011
Rp1012
(dp1013
g21
F0.5
sg22
I45
sg23
g0
(g24
g25
(dp1014
I00
I45
stp1015
Rp1016
(dp1017
g22
I45
sg30
Nsg31
Nsg32
Nsbsg33
I3
sg34
F46.5
sbs(g12
S'bi:(the,market)>0'
p1018
tp1019
g0
(g17
g2
Ntp1020
Rp1021
(dp1022
g21
F0.5
sg22
I45
sg23
g0
(g24
g25
(dp1023
I00
I32
sI01
I13
stp1024
Rp1025
(dp1026
g22
I45
sg30
Nsg31
Nsg32
Nsbsg33
I3
sg34
F46.5
sbs(g8
S'tri:(be,allow,to)>0'
p1027
tp1028
g0
(g17
g2
Ntp1029
Rp1030
(dp1031
g21
F0.5
sg22
I45
sg23
g0
(g24
g25
(dp1032
I00
I40
sI01
I5
stp1033
Rp1034
(dp1035
g22
I45
sg30
Nsg31
Nsg32
Nsbsg33
I3
sg34
F46.5
sbs(g11
g15
tp1036
g0
(g17
g2
Ntp1037
Rp1038
(dp1039
g21
F0.5
sg22
I45
sg23
g0
(g24
g25
(dp1040
I00
I45
stp1041
Rp1042
(dp1043
g22
I45
sg30
Nsg31
Nsg32
Nsbsg33
I3
sg34
F46.5
sbs(g10
S"tri:(,,'',the)>0"
p1044
tp1045
g0
(g17
g2
Ntp1046
Rp1047
(dp1048
g21
F0.5
sg22
I45
sg23
g0
(g24
g25
(dp1049
I00
I37
sI01
I8
stp1050
Rp1051
(dp1052
g22
I45
sg30
Nsg31
Nsg32
Nsbsg33
I3
sg34
F46.5
sbs(g12
S'tri:(pound,(,$)>0'
p1053
tp1054
g0
(g17
g2
Ntp1055
Rp1056
(dp1057
g21
F0.5
sg22
I45
sg23
g0
(g24
g25
(dp1058
I00
I45
stp1059
Rp1060
(dp1061
g22
I45
sg30
Nsg31
Nsg32
Nsbsg33
I3
sg34
F46.5
sbs(g9
S'skip:(,,say,say)>0'
p1062
tp1063
g0
(g17
g2
Ntp1064
Rp1065
(dp1066
g21
F0.5
sg22
I45
sg23
g0
(g24
g25
(dp1067
I00
I45
stp1068
Rp1069
(dp1070
g22
I45
sg30
Nsg31
Nsg32
Nsbsg33
I3
sg34
F46.5
sbs(g12
S'tri:(the,dalai,lama)>0'
p1071
tp1072
g0
(g17
g2
Ntp1073
Rp1074
(dp1075
g21
F0.5
sg22
I45
sg23
g0
(g24
g25
(dp1076
I00
I45
stp1077
Rp1078
(dp1079
g22
I45
sg30
Nsg31
Nsg32
Nsbsg33
I3
sg34
F46.5
sbs(g11
S'tri:(cable,&,amp)>0'
p1080
tp1081
g0
(g17
g2
Ntp1082
Rp1083
(dp1084
g21
F0.5
sg22
I45
sg23
g0
(g24
g25
(dp1085
I00
I45
stp1086
Rp1087
(dp1088
g22
I45
sg30
Nsg31
Nsg32
Nsbsg33
I3
sg34
F46.5
sbs(g9
g1000
tp1089
g0
(g17
g2
Ntp1090
Rp1091
(dp1092
g21
F0.5
sg22
I45
sg23
g0
(g24
g25
(dp1093
I00
I45
stp1094
Rp1095
(dp1096
g22
I45
sg30
Nsg31
Nsg32
Nsbsg33
I3
sg34
F46.5
sbs(g12
S"tri:(.,'',i)>0"
p1097
tp1098
g0
(g17
g2
Ntp1099
Rp1100
(dp1101
g21
F0.5
sg22
I45
sg23
g0
(g24
g25
(dp1102
I00
I34
sI01
I11
stp1103
Rp1104
(dp1105
g22
I45
sg30
Nsg31
Nsg32
Nsbsg33
I3
sg34
F46.5
sbs(g8
S'tri:(to,a,$)>0'
p1106
tp1107
g0
(g17
g2
Ntp1108
Rp1109
(dp1110
g21
F0.5
sg22
I45
sg23
g0
(g24
g25
(dp1111
I00
I45
stp1112
Rp1113
(dp1114
g22
I45
sg30
Nsg31
Nsg32
Nsbsg33
I3
sg34
F46.5
sbs(g9
S'tri:(&,amp,;)>0'
p1115
tp1116
g0
(g17
g2
Ntp1117
Rp1118
(dp1119
g21
F0.5
sg22
I45
sg23
g0
(g24
g25
(dp1120
I00
I45
stp1121
Rp1122
(dp1123
g22
I45
sg30
Nsg31
Nsg32
Nsbsg33
I3
sg34
F46.5
sbs(g12
g964
tp1124
g0
(g17
g2
Ntp1125
Rp1126
(dp1127
g21
F0.5
sg22
I45
sg23
g0
(g24
g25
(dp1128
I00
I32
sI01
I13
stp1129
Rp1130
(dp1131
g22
I45
sg30
Nsg31
Nsg32
Nsbsg33
I3
sg34
F46.5
sbs(g11
S'skip:(capital,plot,the)>0'
p1132
tp1133
g0
(g17
g2
Ntp1134
Rp1135
(dp1136
g21
F0.5
sg22
I45
sg23
g0
(g24
g25
(dp1137
I00
I40
sI01
I5
stp1138
Rp1139
(dp1140
g22
I45
sg30
Nsg31
Nsg32
Nsbsg33
I3
sg34
F46.5
sbs(g12
S'wrd:at>0'
p1141
tp1142
g0
(g17
g2
Ntp1143
Rp1144
(dp1145
g21
F0.5
sg22
I45
sg23
g0
(g24
g25
(dp1146
I00
I6
sI01
I39
stp1147
Rp1148
(dp1149
g22
I45
sg30
Nsg31
Nsg32
Nsbsg33
I3
sg34
F46.5
sbs(g12
S'tri:(prague,stock,exchange)>0'
p1150
tp1151
g0
(g17
g2
Ntp1152
Rp1153
(dp1154
g21
F0.5
sg22
I45
sg23
g0
(g24
g25
(dp1155
I00
I45
stp1156
Rp1157
(dp1158
g22
I45
sg30
Nsg31
Nsg32
Nsbsg33
I3
sg34
F46.5
sbs(g8
S'tri:(tell,reuters,.)>0'
p1159
tp1160
g0
(g17
g2
Ntp1161
Rp1162
(dp1163
g21
F0.5
sg22
I45
sg23
g0
(g24
g25
(dp1164
I00
I45
stp1165
Rp1166
(dp1167
g22
I45
sg30
Nsg31
Nsg32
Nsbsg33
I3
sg34
F46.5
sbs(g11
g1018
tp1168
g0
(g17
g2
Ntp1169
Rp1170
(dp1171
g21
F0.5
sg22
I45
sg23
g0
(g24
g25
(dp1172
I00
I43
sI01
I2
stp1173
Rp1174
(dp1175
g22
I45
sg30
Nsg31
Nsg32
Nsbsg33
I3
sg34
F46.5
sbs(g11
S'skip:(,,say,statement)>0'
p1176
tp1177
g0
(g17
g2
Ntp1178
Rp1179
(dp1180
g21
F0.5
sg22
I45
sg23
g0
(g24
g25
(dp1181
I00
I43
sI01
I2
stp1182
Rp1183
(dp1184
g22
I45
sg30
Nsg31
Nsg32
Nsbsg33
I3
sg34
F46.5
sbs(g12
S"bi:('',he)>0"
p1185
tp1186
g0
(g17
g2
Ntp1187
Rp1188
(dp1189
g21
F0.5
sg22
I45
sg23
g0
(g24
g25
(dp1190
I00
I15
sI01
I30
stp1191
Rp1192
(dp1193
g22
I45
sg30
Nsg31
Nsg32
Nsbsg33
I3
sg34
F46.5
sbs(g8
S'tri:(former,student,leader)>0'
p1194
tp1195
g0
(g17
g2
Ntp1196
Rp1197
(dp1198
g21
F0.5
sg22
I45
sg23
g0
(g24
g25
(dp1199
I00
I45
stp1200
Rp1201
(dp1202
g22
I45
sg30
Nsg31
Nsg32
Nsbsg33
I3
sg34
F46.5
sbs(g11
g231
tp1203
g0
(g17
g2
Ntp1204
Rp1205
(dp1206
g21
F0.5
sg22
I45
sg23
g0
(g24
g25
(dp1207
I00
I45
stp1208
Rp1209
(dp1210
g22
I45
sg30
Nsg31
Nsg32
Nsbsg33
I3
sg34
F46.5
sbs(g8
S'bi:(u,.s)>0'
p1211
tp1212
g0
(g17
g2
Ntp1213
Rp1214
(dp1215
g21
F0.5
sg22
I45
sg23
g0
(g24
g25
(dp1216
I00
I24
sI01
I21
stp1217
Rp1218
(dp1219
g22
I45
sg30
Nsg31
Nsg32
Nsbsg33
I3
sg34
F46.5
sbs(g9
g1194
tp1220
g0
(g17
g2
Ntp1221
Rp1222
(dp1223
g21
F0.5
sg22
I45
sg23
g0
(g24
g25
(dp1224
I00
I45
stp1225
Rp1226
(dp1227
g22
I45
sg30
Nsg31
Nsg32
Nsbsg33
I3
sg34
F46.5
sbs(g11
S'skip:(the,the,,)>0'
p1228
tp1229
g0
(g17
g2
Ntp1230
Rp1231
(dp1232
g21
F0.5
sg22
I45
sg23
g0
(g24
g25
(dp1233
I00
I40
sI01
I5
stp1234
Rp1235
(dp1236
g22
I45
sg30
Nsg31
Nsg32
Nsbsg33
I3
sg34
F46.5
sbs(g9
g481
tp1237
g0
(g17
g2
Ntp1238
Rp1239
(dp1240
g21
F0.5
sg22
I45
sg23
g0
(g24
g25
(dp1241
I00
I36
sI01
I9
stp1242
Rp1243
(dp1244
g22
I45
sg30
Nsg31
Nsg32
Nsbsg33
I3
sg34
F46.5
sbs(g10
S'tri:(--,prague,newsroom)>0'
p1245
tp1246
g0
(g17
g2
Ntp1247
Rp1248
(dp1249
g21
F0.5
sg22
I45
sg23
g0
(g24
g25
(dp1250
I00
I45
stp1251
Rp1252
(dp1253
g22
I45
sg30
Nsg31
Nsg32
Nsbsg33
I3
sg34
F46.5
sbs(g11
S'skip:((,,,,)>0'
p1254
tp1255
g0
(g17
g2
Ntp1256
Rp1257
(dp1258
g21
F0.5
sg22
I45
sg23
g0
(g24
g25
(dp1259
I00
I44
sI01
I1
stp1260
Rp1261
(dp1262
g22
I45
sg30
Nsg31
Nsg32
Nsbsg33
I3
sg34
F46.5
sbs(g9
S'wrd:bank>0'
p1263
tp1264
g0
(g17
g2
Ntp1265
Rp1266
(dp1267
g21
F0.5
sg22
I45
sg23
g0
(g24
g25
(dp1268
I00
I29
sI01
I16
stp1269
Rp1270
(dp1271
g22
I45
sg30
Nsg31
Nsg32
Nsbsg33
I3
sg34
F46.5
sbs(g11
S"skip:('',.,,)>0"
p1272
tp1273
g0
(g17
g2
Ntp1274
Rp1275
(dp1276
g21
F0.5
sg22
I45
sg23
g0
(g24
g25
(dp1277
I00
I45
stp1278
Rp1279
(dp1280
g22
I45
sg30
Nsg31
Nsg32
Nsbsg33
I3
sg34
F46.5
sbs(g10
g682
tp1281
g0
(g17
g2
Ntp1282
Rp1283
(dp1284
g21
F0.5
sg22
I45
sg23
g0
(g24
g25
(dp1285
I00
I45
stp1286
Rp1287
(dp1288
g22
I45
sg30
Nsg31
Nsg32
Nsbsg33
I3
sg34
F46.5
sbs(g11
S'skip:(million,$,.)>0'
p1289
tp1290
g0
(g17
g2
Ntp1291
Rp1292
(dp1293
g21
F0.5
sg22
I45
sg23
g0
(g24
g25
(dp1294
I00
I45
stp1295
Rp1296
(dp1297
g22
I45
sg30
Nsg31
Nsg32
Nsbsg33
I3
sg34
F46.5
sbs(g10
S'tri:(.,(,$)>0'
p1298
tp1299
g0
(g17
g2
Ntp1300
Rp1301
(dp1302
g21
F0.5
sg22
I45
sg23
g0
(g24
g25
(dp1303
I00
I27
sI01
I18
stp1304
Rp1305
(dp1306
g22
I45
sg30
Nsg31
Nsg32
Nsbsg33
I3
sg34
F46.5
sbs(g8
g44
tp1307
g0
(g17
g2
Ntp1308
Rp1309
(dp1310
g21
F0.5
sg22
I45
sg23
g0
(g24
g25
(dp1311
I00
I41
sI01
I4
stp1312
Rp1313
(dp1314
g22
I45
sg30
Nsg31
Nsg32
Nsbsg33
I3
sg34
F46.5
sbs(g11
S"bi:('',say)>0"
p1315
tp1316
g0
(g17
g2
Ntp1317
Rp1318
(dp1319
g21
F0.5
sg22
I45
sg23
g0
(g24
g25
(dp1320
I00
I36
sI01
I9
stp1321
Rp1322
(dp1323
g22
I45
sg30
Nsg31
Nsg32
Nsbsg33
I3
sg34
F46.5
sbs(g9
g646
tp1324
g0
(g17
g2
Ntp1325
Rp1326
(dp1327
g21
F0.5
sg22
I45
sg23
g0
(g24
g25
(dp1328
I00
I40
sI01
I5
stp1329
Rp1330
(dp1331
g22
I45
sg30
Nsg31
Nsg32
Nsbsg33
I3
sg34
F46.5
sbs(g10
g655
tp1332
g0
(g17
g2
Ntp1333
Rp1334
(dp1335
g21
F0.5
sg22
I45
sg23
g0
(g24
g25
(dp1336
I00
I45
stp1337
Rp1338
(dp1339
g22
I45
sg30
Nsg31
Nsg32
Nsbsg33
I3
sg34
F46.5
sbs(g12
g664
tp1340
g0
(g17
g2
Ntp1341
Rp1342
(dp1343
g21
F0.5
sg22
I45
sg23
g0
(g24
g25
(dp1344
I00
I45
stp1345
Rp1346
(dp1347
g22
I45
sg30
Nsg31
Nsg32
Nsbsg33
I3
sg34
F46.5
sbs(g8
S'tri:(of,a,$)>0'
p1348
tp1349
g0
(g17
g2
Ntp1350
Rp1351
(dp1352
g21
F0.5
sg22
I45
sg23
g0
(g24
g25
(dp1353
I00
I45
stp1354
Rp1355
(dp1356
g22
I45
sg30
Nsg31
Nsg32
Nsbsg33
I3
sg34
F46.5
sbs(g11
S'skip:(of,.,be)>0'
p1357
tp1358
g0
(g17
g2
Ntp1359
Rp1360
(dp1361
g21
F0.5
sg22
I45
sg23
g0
(g24
g25
(dp1362
I00
I43
sI01
I2
stp1363
Rp1364
(dp1365
g22
I45
sg30
Nsg31
Nsg32
Nsbsg33
I3
sg34
F46.5
sbs(g10
g1254
tp1366
g0
(g17
g2
Ntp1367
Rp1368
(dp1369
g21
F0.5
sg22
I45
sg23
g0
(g24
g25
(dp1370
I00
I45
stp1371
Rp1372
(dp1373
g22
I45
sg30
Nsg31
Nsg32
Nsbsg33
I3
sg34
F46.5
sbs(g9
g1357
tp1374
g0
(g17
g2
Ntp1375
Rp1376
(dp1377
g21
F0.5
sg22
I45
sg23
g0
(g24
g25
(dp1378
I00
I41
sI01
I4
stp1379
Rp1380
(dp1381
g22
I45
sg30
Nsg31
Nsg32
Nsbsg33
I3
sg34
F46.5
sbs(g12
g1228
tp1382
g0
(g17
g2
Ntp1383
Rp1384
(dp1385
g21
F0.5
sg22
I45
sg23
g0
(g24
g25
(dp1386
I00
I42
sI01
I3
stp1387
Rp1388
(dp1389
g22
I45
sg30
Nsg31
Nsg32
Nsbsg33
I3
sg34
F46.5
sbs(g8
S"tri:('',he,say)>0"
p1390
tp1391
g0
(g17
g2
Ntp1392
Rp1393
(dp1394
g21
F0.5
sg22
I45
sg23
g0
(g24
g25
(dp1395
I00
I27
sI01
I18
stp1396
Rp1397
(dp1398
g22
I45
sg30
Nsg31
Nsg32
Nsbsg33
I3
sg34
F46.5
sbs(g8
S'skip:(u,secretary,warren)>0'
p1399
tp1400
g0
(g17
g2
Ntp1401
Rp1402
(dp1403
g21
F0.5
sg22
I45
sg23
g0
(g24
g25
(dp1404
I00
I45
stp1405
Rp1406
(dp1407
g22
I45
sg30
Nsg31
Nsg32
Nsbsg33
I3
sg34
F46.5
sbs(g8
S'skip:(a,for,,)>0'
p1408
tp1409
g0
(g17
g2
Ntp1410
Rp1411
(dp1412
g21
F0.5
sg22
I45
sg23
g0
(g24
g25
(dp1413
I00
I45
stp1414
Rp1415
(dp1416
g22
I45
sg30
Nsg31
Nsg32
Nsbsg33
I3
sg34
F46.5
sbs(g8
S'bi:(news,corp)>0'
p1417
tp1418
g0
(g17
g2
Ntp1419
Rp1420
(dp1421
g21
F0.5
sg22
I45
sg23
g0
(g24
g25
(dp1422
I00
I45
stp1423
Rp1424
(dp1425
g22
I45
sg30
Nsg31
Nsg32
Nsbsg33
I3
sg34
F46.5
sbs(g9
g187
tp1426
g0
(g17
g2
Ntp1427
Rp1428
(dp1429
g21
F0.5
sg22
I45
sg23
g0
(g24
g25
(dp1430
I00
I45
stp1431
Rp1432
(dp1433
g22
I45
sg30
Nsg31
Nsg32
Nsbsg33
I3
sg34
F46.5
sbs(g10
g1071
tp1434
g0
(g17
g2
Ntp1435
Rp1436
(dp1437
g21
F0.5
sg22
I45
sg23
g0
(g24
g25
(dp1438
I00
I45
stp1439
Rp1440
(dp1441
g22
I45
sg30
Nsg31
Nsg32
Nsbsg33
I3
sg34
F46.5
sbs(g10
S'tri:(the,unite,state)>0'
p1442
tp1443
g0
(g17
g2
Ntp1444
Rp1445
(dp1446
g21
F0.5
sg22
I45
sg23
g0
(g24
g25
(dp1447
I00
I39
sI01
I6
stp1448
Rp1449
(dp1450
g22
I45
sg30
Nsg31
Nsg32
Nsbsg33
I3
sg34
F46.5
sbs(g10
S"tri:(i,do,n't)>0"
p1451
tp1452
g0
(g17
g2
Ntp1453
Rp1454
(dp1455
g21
F0.5
sg22
I45
sg23
g0
(g24
g25
(dp1456
I00
I43
sI01
I2
stp1457
Rp1458
(dp1459
g22
I45
sg30
Nsg31
Nsg32
Nsbsg33
I3
sg34
F46.5
sbs(g11
S'tri:(amp,;,w)>0'
p1460
tp1461
g0
(g17
g2
Ntp1462
Rp1463
(dp1464
g21
F0.5
sg22
I45
sg23
g0
(g24
g25
(dp1465
I00
I45
stp1466
Rp1467
(dp1468
g22
I45
sg30
Nsg31
Nsg32
Nsbsg33
I3
sg34
F46.5
sbs(g8
S"tri:(say,.,'')>0"
p1469
tp1470
g0
(g17
g2
Ntp1471
Rp1472
(dp1473
g21
F0.5
sg22
I45
sg23
g0
(g24
g25
(dp1474
I00
I33
sI01
I12
stp1475
Rp1476
(dp1477
g22
I45
sg30
Nsg31
Nsg32
Nsbsg33
I3
sg34
F46.5
sbs(g8
S'skip:(dare,communist,the)>0'
p1478
tp1479
g0
(g17
g2
Ntp1480
Rp1481
(dp1482
g21
F0.5
sg22
I45
sg23
g0
(g24
g25
(dp1483
I00
I45
stp1484
Rp1485
(dp1486
g22
I45
sg30
Nsg31
Nsg32
Nsbsg33
I3
sg34
F46.5
sbs(g8
g89
tp1487
g0
(g17
g2
Ntp1488
Rp1489
(dp1490
g21
F0.5
sg22
I45
sg23
g0
(g24
g25
(dp1491
I00
I32
sI01
I13
stp1492
Rp1493
(dp1494
g22
I45
sg30
Nsg31
Nsg32
Nsbsg33
I3
sg34
F46.5
sbs(g12
S'skip:(have,four,prison)>0'
p1495
tp1496
g0
(g17
g2
Ntp1497
Rp1498
(dp1499
g21
F0.5
sg22
I45
sg23
g0
(g24
g25
(dp1500
I00
I45
stp1501
Rp1502
(dp1503
g22
I45
sg30
Nsg31
Nsg32
Nsbsg33
I3
sg34
F46.5
sbs(g12
g143
tp1504
g0
(g17
g2
Ntp1505
Rp1506
(dp1507
g21
F0.5
sg22
I45
sg23
g0
(g24
g25
(dp1508
I00
I44
sI01
I1
stp1509
Rp1510
(dp1511
g22
I45
sg30
Nsg31
Nsg32
Nsbsg33
I3
sg34
F46.5
sbs(g11
g107
tp1512
g0
(g17
g2
Ntp1513
Rp1514
(dp1515
g21
F0.5
sg22
I45
sg23
g0
(g24
g25
(dp1516
I00
I17
sI01
I28
stp1517
Rp1518
(dp1519
g22
I45
sg30
Nsg31
Nsg32
Nsbsg33
I3
sg34
F46.5
sbs(g12
S'tri:(sydney,newsroom,61-2)>0'
p1520
tp1521
g0
(g17
g2
Ntp1522
Rp1523
(dp1524
g21
F0.5
sg22
I45
sg23
g0
(g24
g25
(dp1525
I00
I22
sI01
I23
stp1526
Rp1527
(dp1528
g22
I45
sg30
Nsg31
Nsg32
Nsbsg33
I3
sg34
F46.5
sbs(g8
g1520
tp1529
g0
(g17
g2
Ntp1530
Rp1531
(dp1532
g21
F0.5
sg22
I45
sg23
g0
(g24
g25
(dp1533
I00
I45
stp1534
Rp1535
(dp1536
g22
I45
sg30
Nsg31
Nsg32
Nsbsg33
I3
sg34
F46.5
sbs(g10
S'tri:(the,first,round)>0'
p1537
tp1538
g0
(g17
g2
Ntp1539
Rp1540
(dp1541
g21
F0.5
sg22
I45
sg23
g0
(g24
g25
(dp1542
I00
I45
stp1543
Rp1544
(dp1545
g22
I45
sg30
Nsg31
Nsg32
Nsbsg33
I3
sg34
F46.5
sbs(g11
S'bi:(in,a)>0'
p1546
tp1547
g0
(g17
g2
Ntp1548
Rp1549
(dp1550
g21
F0.5
sg22
I45
sg23
g0
(g24
g25
(dp1551
I00
I15
sI01
I30
stp1552
Rp1553
(dp1554
g22
I45
sg30
Nsg31
Nsg32
Nsbsg33
I3
sg34
F46.5
sbs(g9
S'skip:(.,,,,)>0'
p1555
tp1556
g0
(g17
g2
Ntp1557
Rp1558
(dp1559
g21
F0.5
sg22
I45
sg23
g0
(g24
g25
(dp1560
I00
I45
stp1561
Rp1562
(dp1563
g22
I45
sg30
Nsg31
Nsg32
Nsbsg33
I3
sg34
F46.5
sbs(g9
g1080
tp1564
g0
(g17
g2
Ntp1565
Rp1566
(dp1567
g21
F0.5
sg22
I45
sg23
g0
(g24
g25
(dp1568
I00
I45
stp1569
Rp1570
(dp1571
g22
I45
sg30
Nsg31
Nsg32
Nsbsg33
I3
sg34
F46.5
sbs(g11
g1442
tp1572
g0
(g17
g2
Ntp1573
Rp1574
(dp1575
g21
F0.5
sg22
I45
sg23
g0
(g24
g25
(dp1576
I00
I32
sI01
I13
stp1577
Rp1578
(dp1579
g22
I45
sg30
Nsg31
Nsg32
Nsbsg33
I3
sg34
F46.5
sbs(g11
S'wrd:by>0'
p1580
tp1581
g0
(g17
g2
Ntp1582
Rp1583
(dp1584
g21
F0.5
sg22
I45
sg23
g0
(g24
g25
(dp1585
I00
I1
sI01
I44
stp1586
Rp1587
(dp1588
g22
I45
sg30
Nsg31
Nsg32
Nsbsg33
I3
sg34
F46.5
sbs(g10
S'bi:(net,profit)>0'
p1589
tp1590
g0
(g17
g2
Ntp1591
Rp1592
(dp1593
g21
F0.5
sg22
I45
sg23
g0
(g24
g25
(dp1594
I00
I45
stp1595
Rp1596
(dp1597
g22
I45
sg30
Nsg31
Nsg32
Nsbsg33
I3
sg34
F46.5
sbs(g9
g418
tp1598
g0
(g17
g2
Ntp1599
Rp1600
(dp1601
g21
F0.5
sg22
I45
sg23
g0
(g24
g25
(dp1602
I00
I41
sI01
I4
stp1603
Rp1604
(dp1605
g22
I45
sg30
Nsg31
Nsg32
Nsbsg33
I3
sg34
F46.5
sbs(g8
S'bi:(20,percent)>0'
p1606
tp1607
g0
(g17
g2
Ntp1608
Rp1609
(dp1610
g21
F0.5
sg22
I45
sg23
g0
(g24
g25
(dp1611
I00
I45
stp1612
Rp1613
(dp1614
g22
I45
sg30
Nsg31
Nsg32
Nsbsg33
I3
sg34
F46.5
sbs(g8
g267
tp1615
g0
(g17
g2
Ntp1616
Rp1617
(dp1618
g21
F0.5
sg22
I45
sg23
g0
(g24
g25
(dp1619
I00
I44
sI01
I1
stp1620
Rp1621
(dp1622
g22
I45
sg30
Nsg31
Nsg32
Nsbsg33
I3
sg34
F46.5
sbs(g11
S'bi:(of,a)>0'
p1623
tp1624
g0
(g17
g2
Ntp1625
Rp1626
(dp1627
g21
F0.5
sg22
I45
sg23
g0
(g24
g25
(dp1628
I00
I29
sI01
I16
stp1629
Rp1630
(dp1631
g22
I45
sg30
Nsg31
Nsg32
Nsbsg33
I3
sg34
F46.5
sbs(g12
g1589
tp1632
g0
(g17
g2
Ntp1633
Rp1634
(dp1635
g21
F0.5
sg22
I45
sg23
g0
(g24
g25
(dp1636
I00
I16
sI01
I29
stp1637
Rp1638
(dp1639
g22
I45
sg30
Nsg31
Nsg32
Nsbsg33
I3
sg34
F46.5
sbs(g11
S'skip:(,,a,million)>0'
p1640
tp1641
g0
(g17
g2
Ntp1642
Rp1643
(dp1644
g21
F0.5
sg22
I45
sg23
g0
(g24
g25
(dp1645
I00
I45
stp1646
Rp1647
(dp1648
g22
I45
sg30
Nsg31
Nsg32
Nsbsg33
I3
sg34
F46.5
sbs(g11
g620
tp1649
g0
(g17
g2
Ntp1650
Rp1651
(dp1652
g21
F0.5
sg22
I45
sg23
g0
(g24
g25
(dp1653
I00
I45
stp1654
Rp1655
(dp1656
g22
I45
sg30
Nsg31
Nsg32
Nsbsg33
I3
sg34
F46.5
sbs(g10
g1115
tp1657
g0
(g17
g2
Ntp1658
Rp1659
(dp1660
g21
F0.5
sg22
I45
sg23
g0
(g24
g25
(dp1661
I00
I34
sI01
I11
stp1662
Rp1663
(dp1664
g22
I45
sg30
Nsg31
Nsg32
Nsbsg33
I3
sg34
F46.5
sbs(g11
S'skip:(,,,,role)>0'
p1665
tp1666
g0
(g17
g2
Ntp1667
Rp1668
(dp1669
g21
F0.5
sg22
I45
sg23
g0
(g24
g25
(dp1670
I00
I39
sI01
I6
stp1671
Rp1672
(dp1673
g22
I45
sg30
Nsg31
Nsg32
Nsbsg33
I3
sg34
F46.5
sbs(g10
S'bi:(,,which)>0'
p1674
tp1675
g0
(g17
g2
Ntp1676
Rp1677
(dp1678
g21
F0.5
sg22
I45
sg23
g0
(g24
g25
(dp1679
I00
I4
sI01
I41
stp1680
Rp1681
(dp1682
g22
I45
sg30
Nsg31
Nsg32
Nsbsg33
I3
sg34
F46.5
sbs(g10
g311
tp1683
g0
(g17
g2
Ntp1684
Rp1685
(dp1686
g21
F0.5
sg22
I45
sg23
g0
(g24
g25
(dp1687
I00
I12
sI01
I33
stp1688
Rp1689
(dp1690
g22
I45
sg30
Nsg31
Nsg32
Nsbsg33
I3
sg34
F46.5
sbs(g11
S'bi:(human,right)>0'
p1691
tp1692
g0
(g17
g2
Ntp1693
Rp1694
(dp1695
g21
F0.5
sg22
I45
sg23
g0
(g24
g25
(dp1696
I00
I29
sI01
I16
stp1697
Rp1698
(dp1699
g22
I45
sg30
Nsg31
Nsg32
Nsbsg33
I3
sg34
F46.5
sbs(g8
g293
tp1700
g0
(g17
g2
Ntp1701
Rp1702
(dp1703
g21
F0.5
sg22
I45
sg23
g0
(g24
g25
(dp1704
I00
I3
sI01
I42
stp1705
Rp1706
(dp1707
g22
I45
sg30
Nsg31
Nsg32
Nsbsg33
I3
sg34
F46.5
sbs(g10
g1520
tp1708
g0
(g17
g2
Ntp1709
Rp1710
(dp1711
g21
F0.5
sg22
I45
sg23
g0
(g24
g25
(dp1712
I00
I45
stp1713
Rp1714
(dp1715
g22
I45
sg30
Nsg31
Nsg32
Nsbsg33
I3
sg34
F46.5
sbs(g9
g551
tp1716
g0
(g17
g2
Ntp1717
Rp1718
(dp1719
g21
F0.5
sg22
I45
sg23
g0
(g24
g25
(dp1720
I00
I44
sI01
I1
stp1721
Rp1722
(dp1723
g22
I45
sg30
Nsg31
Nsg32
Nsbsg33
I3
sg34
F46.5
sbs(g10
S'tri:(amp,;,wireless)>0'
p1724
tp1725
g0
(g17
g2
Ntp1726
Rp1727
(dp1728
g21
F0.5
sg22
I45
sg23
g0
(g24
g25
(dp1729
I00
I40
sI01
I5
stp1730
Rp1731
(dp1732
g22
I45
sg30
Nsg31
Nsg32
Nsbsg33
I3
sg34
F46.5
sbs(g12
g1417
tp1733
g0
(g17
g2
Ntp1734
Rp1735
(dp1736
g21
F0.5
sg22
I45
sg23
g0
(g24
g25
(dp1737
I00
I28
sI01
I17
stp1738
Rp1739
(dp1740
g22
I45
sg30
Nsg31
Nsg32
Nsbsg33
I3
sg34
F46.5
sbs(g11
S'tri:(say,.,the)>0'
p1741
tp1742
g0
(g17
g2
Ntp1743
Rp1744
(dp1745
g21
F0.5
sg22
I45
sg23
g0
(g24
g25
(dp1746
I00
I21
sI01
I24
stp1747
Rp1748
(dp1749
g22
I45
sg30
Nsg31
Nsg32
Nsbsg33
I3
sg34
F46.5
sbs(g12
S'wrd:he>0'
p1750
tp1751
g0
(g17
g2
Ntp1752
Rp1753
(dp1754
g21
F0.5
sg22
I45
sg23
g0
(g24
g25
(dp1755
I00
I6
sI01
I39
stp1756
Rp1757
(dp1758
g22
I45
sg30
Nsg31
Nsg32
Nsbsg33
I3
sg34
F46.5
sbs(g9
g516
tp1759
g0
(g17
g2
Ntp1760
Rp1761
(dp1762
g21
F0.5
sg22
I45
sg23
g0
(g24
g25
(dp1763
I00
I44
sI01
I1
stp1764
Rp1765
(dp1766
g22
I45
sg30
Nsg31
Nsg32
Nsbsg33
I3
sg34
F46.5
sbs(g8
S'bi:(for,the)>0'
p1767
tp1768
g0
(g17
g2
Ntp1769
Rp1770
(dp1771
g21
F0.5
sg22
I45
sg23
g0
(g24
g25
(dp1772
I00
I24
sI01
I21
stp1773
Rp1774
(dp1775
g22
I45
sg30
Nsg31
Nsg32
Nsbsg33
I3
sg34
F46.5
sbs(g8
S"skip:(the,'',,)>0"
p1776
tp1777
g0
(g17
g2
Ntp1778
Rp1779
(dp1780
g21
F0.5
sg22
I45
sg23
g0
(g24
g25
(dp1781
I00
I41
sI01
I4
stp1782
Rp1783
(dp1784
g22
I45
sg30
Nsg31
Nsg32
Nsbsg33
I3
sg34
F46.5
sbs(g10
g436
tp1785
g0
(g17
g2
Ntp1786
Rp1787
(dp1788
g21
F0.5
sg22
I45
sg23
g0
(g24
g25
(dp1789
I00
I41
sI01
I4
stp1790
Rp1791
(dp1792
g22
I45
sg30
Nsg31
Nsg32
Nsbsg33
I3
sg34
F46.5
sbs(g11
S'bi:(on,the)>0'
p1793
tp1794
g0
(g17
g2
Ntp1795
Rp1796
(dp1797
g21
F0.5
sg22
I45
sg23
g0
(g24
g25
(dp1798
I00
I18
sI01
I27
stp1799
Rp1800
(dp1801
g22
I45
sg30
Nsg31
Nsg32
Nsbsg33
I3
sg34
F46.5
sbs(g12
g1623
tp1802
g0
(g17
g2
Ntp1803
Rp1804
(dp1805
g21
F0.5
sg22
I45
sg23
g0
(g24
g25
(dp1806
I00
I16
sI01
I29
stp1807
Rp1808
(dp1809
g22
I45
sg30
Nsg31
Nsg32
Nsbsg33
I3
sg34
F46.5
sbs(g9
g742
tp1810
g0
(g17
g2
Ntp1811
Rp1812
(dp1813
g21
F0.5
sg22
I45
sg23
g0
(g24
g25
(dp1814
I00
I44
sI01
I1
stp1815
Rp1816
(dp1817
g22
I45
sg30
Nsg31
Nsg32
Nsbsg33
I3
sg34
F46.5
sbs(g9
S'tri:(be,expect,to)>0'
p1818
tp1819
g0
(g17
g2
Ntp1820
Rp1821
(dp1822
g21
F0.5
sg22
I45
sg23
g0
(g24
g25
(dp1823
I00
I41
sI01
I4
stp1824
Rp1825
(dp1826
g22
I45
sg30
Nsg31
Nsg32
Nsbsg33
I3
sg34
F46.5
sbs(g12
g1348
tp1827
g0
(g17
g2
Ntp1828
Rp1829
(dp1830
g21
F0.5
sg22
I45
sg23
g0
(g24
g25
(dp1831
I00
I27
sI01
I18
stp1832
Rp1833
(dp1834
g22
I45
sg30
Nsg31
Nsg32
Nsbsg33
I3
sg34
F46.5
sbs(g8
g1115
tp1835
g0
(g17
g2
Ntp1836
Rp1837
(dp1838
g21
F0.5
sg22
I45
sg23
g0
(g24
g25
(dp1839
I00
I37
sI01
I8
stp1840
Rp1841
(dp1842
g22
I45
sg30
Nsg31
Nsg32
Nsbsg33
I3
sg34
F46.5
sbs(g9
S'tri:(for,example,,)>0'
p1843
tp1844
g0
(g17
g2
Ntp1845
Rp1846
(dp1847
g21
F0.5
sg22
I45
sg23
g0
(g24
g25
(dp1848
I00
I45
stp1849
Rp1850
(dp1851
g22
I45
sg30
Nsg31
Nsg32
Nsbsg33
I3
sg34
F46.5
sbs(g9
g603
tp1852
g0
(g17
g2
Ntp1853
Rp1854
(dp1855
g21
F0.5
sg22
I45
sg23
g0
(g24
g25
(dp1856
I00
I41
sI01
I4
stp1857
Rp1858
(dp1859
g22
I45
sg30
Nsg31
Nsg32
Nsbsg33
I3
sg34
F46.5
sbs(g12
g577
tp1860
g0
(g17
g2
Ntp1861
Rp1862
(dp1863
g21
F0.5
sg22
I45
sg23
g0
(g24
g25
(dp1864
I00
I45
stp1865
Rp1866
(dp1867
g22
I45
sg30
Nsg31
Nsg32
Nsbsg33
I3
sg34
F46.5
sbs(g12
g827
tp1868
g0
(g17
g2
Ntp1869
Rp1870
(dp1871
g21
F0.5
sg22
I45
sg23
g0
(g24
g25
(dp1872
I00
I44
sI01
I1
stp1873
Rp1874
(dp1875
g22
I45
sg30
Nsg31
Nsg32
Nsbsg33
I3
sg34
F46.5
sbs(g12
g1606
tp1876
g0
(g17
g2
Ntp1877
Rp1878
(dp1879
g21
F0.5
sg22
I45
sg23
g0
(g24
g25
(dp1880
I00
I29
sI01
I16
stp1881
Rp1882
(dp1883
g22
I45
sg30
Nsg31
Nsg32
Nsbsg33
I3
sg34
F46.5
sbs(g12
g445
tp1884
g0
(g17
g2
Ntp1885
Rp1886
(dp1887
g21
F0.5
sg22
I45
sg23
g0
(g24
g25
(dp1888
I00
I45
stp1889
Rp1890
(dp1891
g22
I45
sg30
Nsg31
Nsg32
Nsbsg33
I3
sg34
F46.5
sbs(g12
S'skip:(a,the,.)>0'
p1892
tp1893
g0
(g17
g2
Ntp1894
Rp1895
(dp1896
g21
F0.5
sg22
I45
sg23
g0
(g24
g25
(dp1897
I00
I44
sI01
I1
stp1898
Rp1899
(dp1900
g22
I45
sg30
Nsg31
Nsg32
Nsbsg33
I3
sg34
F46.5
sbs(g10
g845
tp1901
g0
(g17
g2
Ntp1902
Rp1903
(dp1904
g21
F0.5
sg22
I45
sg23
g0
(g24
g25
(dp1905
I00
I45
stp1906
Rp1907
(dp1908
g22
I45
sg30
Nsg31
Nsg32
Nsbsg33
I3
sg34
F46.5
sbs(g11
g80
tp1909
g0
(g17
g2
Ntp1910
Rp1911
(dp1912
g21
F0.5
sg22
I45
sg23
g0
(g24
g25
(dp1913
I00
I45
stp1914
Rp1915
(dp1916
g22
I45
sg30
Nsg31
Nsg32
Nsbsg33
I3
sg34
F46.5
sbs(g12
g516
tp1917
g0
(g17
g2
Ntp1918
Rp1919
(dp1920
g21
F0.5
sg22
I45
sg23
g0
(g24
g25
(dp1921
I00
I45
stp1922
Rp1923
(dp1924
g22
I45
sg30
Nsg31
Nsg32
Nsbsg33
I3
sg34
F46.5
sbs(g11
g436
tp1925
g0
(g17
g2
Ntp1926
Rp1927
(dp1928
g21
F0.5
sg22
I45
sg23
g0
(g24
g25
(dp1929
I00
I39
sI01
I6
stp1930
Rp1931
(dp1932
g22
I45
sg30
Nsg31
Nsg32
Nsbsg33
I3
sg34
F46.5
sbs(g12
g637
tp1933
g0
(g17
g2
Ntp1934
Rp1935
(dp1936
g21
F0.5
sg22
I45
sg23
g0
(g24
g25
(dp1937
I00
I44
sI01
I1
stp1938
Rp1939
(dp1940
g22
I45
sg30
Nsg31
Nsg32
Nsbsg33
I3
sg34
F46.5
sbs(g10
g1000
tp1941
g0
(g17
g2
Ntp1942
Rp1943
(dp1944
g21
F0.5
sg22
I45
sg23
g0
(g24
g25
(dp1945
I00
I38
sI01
I7
stp1946
Rp1947
(dp1948
g22
I45
sg30
Nsg31
Nsg32
Nsbsg33
I3
sg34
F46.5
sbs(g12
g560
tp1949
g0
(g17
g2
Ntp1950
Rp1951
(dp1952
g21
F0.5
sg22
I45
sg23
g0
(g24
g25
(dp1953
I00
I32
sI01
I13
stp1954
Rp1955
(dp1956
g22
I45
sg30
Nsg31
Nsg32
Nsbsg33
I3
sg34
F46.5
sbs(g9
g98
tp1957
g0
(g17
g2
Ntp1958
Rp1959
(dp1960
g21
F0.5
sg22
I45
sg23
g0
(g24
g25
(dp1961
I00
I45
stp1962
Rp1963
(dp1964
g22
I45
sg30
Nsg31
Nsg32
Nsbsg33
I3
sg34
F46.5
sbs(g11
g673
tp1965
g0
(g17
g2
Ntp1966
Rp1967
(dp1968
g21
F0.5
sg22
I45
sg23
g0
(g24
g25
(dp1969
I00
I17
sI01
I28
stp1970
Rp1971
(dp1972
g22
I45
sg30
Nsg31
Nsg32
Nsbsg33
I3
sg34
F46.5
sbs(g9
g973
tp1973
g0
(g17
g2
Ntp1974
Rp1975
(dp1976
g21
F0.5
sg22
I45
sg23
g0
(g24
g25
(dp1977
I00
I45
stp1978
Rp1979
(dp1980
g22
I45
sg30
Nsg31
Nsg32
Nsbsg33
I3
sg34
F46.5
sbs(g12
S'tri:(overthrow,the,government)>0'
p1981
tp1982
g0
(g17
g2
Ntp1983
Rp1984
(dp1985
g21
F0.5
sg22
I45
sg23
g0
(g24
g25
(dp1986
I00
I45
stp1987
Rp1988
(dp1989
g22
I45
sg30
Nsg31
Nsg32
Nsbsg33
I3
sg34
F46.5
sbs(g9
g267
tp1990
g0
(g17
g2
Ntp1991
Rp1992
(dp1993
g21
F0.5
sg22
I45
sg23
g0
(g24
g25
(dp1994
I00
I45
stp1995
Rp1996
(dp1997
g22
I45
sg30
Nsg31
Nsg32
Nsbsg33
I3
sg34
F46.5
sbs(g12
g1555
tp1998
g0
(g17
g2
Ntp1999
Rp2000
(dp2001
g21
F0.5
sg22
I45
sg23
g0
(g24
g25
(dp2002
I00
I45
stp2003
Rp2004
(dp2005
g22
I45
sg30
Nsg31
Nsg32
Nsbsg33
I3
sg34
F46.5
sbs(g8
g1724
tp2006
g0
(g17
g2
Ntp2007
Rp2008
(dp2009
g21
F0.5
sg22
I45
sg23
g0
(g24
g25
(dp2010
I00
I45
stp2011
Rp2012
(dp2013
g22
I45
sg30
Nsg31
Nsg32
Nsbsg33
I3
sg34
F46.5
sbs(g8
g1460
tp2014
g0
(g17
g2
Ntp2015
Rp2016
(dp2017
g21
F0.5
sg22
I45
sg23
g0
(g24
g25
(dp2018
I00
I45
stp2019
Rp2020
(dp2021
g22
I45
sg30
Nsg31
Nsg32
Nsbsg33
I3
sg34
F46.5
sbs(g8
g1981
tp2022
g0
(g17
g2
Ntp2023
Rp2024
(dp2025
g21
F0.5
sg22
I45
sg23
g0
(g24
g25
(dp2026
I00
I45
stp2027
Rp2028
(dp2029
g22
I45
sg30
Nsg31
Nsg32
Nsbsg33
I3
sg34
F46.5
sbs(g9
g1623
tp2030
g0
(g17
g2
Ntp2031
Rp2032
(dp2033
g21
F0.5
sg22
I45
sg23
g0
(g24
g25
(dp2034
I00
I24
sI01
I21
stp2035
Rp2036
(dp2037
g22
I45
sg30
Nsg31
Nsg32
Nsbsg33
I3
sg34
F46.5
sbs(g12
g204
tp2038
g0
(g17
g2
Ntp2039
Rp2040
(dp2041
g21
F0.5
sg22
I45
sg23
g0
(g24
g25
(dp2042
I00
I45
stp2043
Rp2044
(dp2045
g22
I45
sg30
Nsg31
Nsg32
Nsbsg33
I3
sg34
F46.5
sbs(g8
g365
tp2046
g0
(g17
g2
Ntp2047
Rp2048
(dp2049
g21
F0.5
sg22
I45
sg23
g0
(g24
g25
(dp2050
I00
I24
sI01
I21
stp2051
Rp2052
(dp2053
g22
I45
sg30
Nsg31
Nsg32
Nsbsg33
I3
sg34
F46.5
sbs(g11
S'bi:(,,but)>0'
p2054
tp2055
g0
(g17
g2
Ntp2056
Rp2057
(dp2058
g21
F0.5
sg22
I45
sg23
g0
(g24
g25
(dp2059
I00
I20
sI01
I25
stp2060
Rp2061
(dp2062
g22
I45
sg30
Nsg31
Nsg32
Nsbsg33
I3
sg34
F46.5
sbs(g9
g15
tp2063
g0
(g17
g2
Ntp2064
Rp2065
(dp2066
g21
F0.5
sg22
I45
sg23
g0
(g24
g25
(dp2067
I00
I35
sI01
I10
stp2068
Rp2069
(dp2070
g22
I45
sg30
Nsg31
Nsg32
Nsbsg33
I3
sg34
F46.5
sbs(g12
S'skip:(of,,,the)>0'
p2071
tp2072
g0
(g17
g2
Ntp2073
Rp2074
(dp2075
g21
F0.5
sg22
I45
sg23
g0
(g24
g25
(dp2076
I00
I42
sI01
I3
stp2077
Rp2078
(dp2079
g22
I45
sg30
Nsg31
Nsg32
Nsbsg33
I3
sg34
F46.5
sbs(g9
g169
tp2080
g0
(g17
g2
Ntp2081
Rp2082
(dp2083
g21
F0.5
sg22
I45
sg23
g0
(g24
g25
(dp2084
I00
I16
sI01
I29
stp2085
Rp2086
(dp2087
g22
I45
sg30
Nsg31
Nsg32
Nsbsg33
I3
sg34
F46.5
sbs(g12
g1674
tp2088
g0
(g17
g2
Ntp2089
Rp2090
(dp2091
g21
F0.5
sg22
I45
sg23
g0
(g24
g25
(dp2092
I00
I23
sI01
I22
stp2093
Rp2094
(dp2095
g22
I45
sg30
Nsg31
Nsg32
Nsbsg33
I3
sg34
F46.5
sbs(g11
g1009
tp2096
g0
(g17
g2
Ntp2097
Rp2098
(dp2099
g21
F0.5
sg22
I45
sg23
g0
(g24
g25
(dp2100
I00
I39
sI01
I6
stp2101
Rp2102
(dp2103
g22
I45
sg30
Nsg31
Nsg32
Nsbsg33
I3
sg34
F46.5
sbs(g10
S'skip:(crime,subversion,his)>0'
p2104
tp2105
g0
(g17
g2
Ntp2106
Rp2107
(dp2108
g21
F0.5
sg22
I45
sg23
g0
(g24
g25
(dp2109
I00
I45
stp2110
Rp2111
(dp2112
g22
I45
sg30
Nsg31
Nsg32
Nsbsg33
I3
sg34
F46.5
sbs(g10
g302
tp2113
g0
(g17
g2
Ntp2114
Rp2115
(dp2116
g21
F0.5
sg22
I45
sg23
g0
(g24
g25
(dp2117
I00
I37
sI01
I8
stp2118
Rp2119
(dp2120
g22
I45
sg30
Nsg31
Nsg32
Nsbsg33
I3
sg34
F46.5
sbs(g8
g1141
tp2121
g0
(g17
g2
Ntp2122
Rp2123
(dp2124
g21
F0.5
sg22
I45
sg23
g0
(g24
g25
(dp2125
I00
I7
sI01
I38
stp2126
Rp2127
(dp2128
g22
I45
sg30
Nsg31
Nsg32
Nsbsg33
I3
sg34
F46.5
sbs(g9
S'tri:(newspaper,say,.)>0'
p2129
tp2130
g0
(g17
g2
Ntp2131
Rp2132
(dp2133
g21
F0.5
sg22
I45
sg23
g0
(g24
g25
(dp2134
I00
I45
stp2135
Rp2136
(dp2137
g22
I45
sg30
Nsg31
Nsg32
Nsbsg33
I3
sg34
F46.5
sbs(g12
S'skip:(say,,,at)>0'
p2138
tp2139
g0
(g17
g2
Ntp2140
Rp2141
(dp2142
g21
F0.5
sg22
I45
sg23
g0
(g24
g25
(dp2143
I00
I44
sI01
I1
stp2144
Rp2145
(dp2146
g22
I45
sg30
Nsg31
Nsg32
Nsbsg33
I3
sg34
F46.5
sbs(g10
S'skip:(a,,,say)>0'
p2147
tp2148
g0
(g17
g2
Ntp2149
Rp2150
(dp2151
g21
F0.5
sg22
I45
sg23
g0
(g24
g25
(dp2152
I00
I38
sI01
I7
stp2153
Rp2154
(dp2155
g22
I45
sg30
Nsg31
Nsg32
Nsbsg33
I3
sg34
F46.5
sbs(g10
g1741
tp2156
g0
(g17
g2
Ntp2157
Rp2158
(dp2159
g21
F0.5
sg22
I45
sg23
g0
(g24
g25
(dp2160
I00
I32
sI01
I13
stp2161
Rp2162
(dp2163
g22
I45
sg30
Nsg31
Nsg32
Nsbsg33
I3
sg34
F46.5
sbs(g11
S'bi:(.s,.)>0'
p2164
tp2165
g0
(g17
g2
Ntp2166
Rp2167
(dp2168
g21
F0.5
sg22
I45
sg23
g0
(g24
g25
(dp2169
I00
I33
sI01
I12
stp2170
Rp2171
(dp2172
g22
I45
sg30
Nsg31
Nsg32
Nsbsg33
I3
sg34
F46.5
sbs(g9
S'bi:(credit,union)>0'
p2173
tp2174
g0
(g17
g2
Ntp2175
Rp2176
(dp2177
g21
F0.5
sg22
I45
sg23
g0
(g24
g25
(dp2178
I00
I45
stp2179
Rp2180
(dp2181
g22
I45
sg30
Nsg31
Nsg32
Nsbsg33
I3
sg34
F46.5
sbs(g9
g302
tp2182
g0
(g17
g2
Ntp2183
Rp2184
(dp2185
g21
F0.5
sg22
I45
sg23
g0
(g24
g25
(dp2186
I00
I43
sI01
I2
stp2187
Rp2188
(dp2189
g22
I45
sg30
Nsg31
Nsg32
Nsbsg33
I3
sg34
F46.5
sbs(g11
g930
tp2190
g0
(g17
g2
Ntp2191
Rp2192
(dp2193
g21
F0.5
sg22
I45
sg23
g0
(g24
g25
(dp2194
I00
I25
sI01
I20
stp2195
Rp2196
(dp2197
g22
I45
sg30
Nsg31
Nsg32
Nsbsg33
I3
sg34
F46.5
sbs(g9
S'skip:(close,cent,$)>0'
p2198
tp2199
g0
(g17
g2
Ntp2200
Rp2201
(dp2202
g21
F0.5
sg22
I45
sg23
g0
(g24
g25
(dp2203
I00
I45
stp2204
Rp2205
(dp2206
g22
I45
sg30
Nsg31
Nsg32
Nsbsg33
I3
sg34
F46.5
sbs(g12
g258
tp2207
g0
(g17
g2
Ntp2208
Rp2209
(dp2210
g21
F0.5
sg22
I45
sg23
g0
(g24
g25
(dp2211
I00
I45
stp2212
Rp2213
(dp2214
g22
I45
sg30
Nsg31
Nsg32
Nsbsg33
I3
sg34
F46.5
sbs(g8
g1843
tp2215
g0
(g17
g2
Ntp2216
Rp2217
(dp2218
g21
F0.5
sg22
I45
sg23
g0
(g24
g25
(dp2219
I00
I34
sI01
I11
stp2220
Rp2221
(dp2222
g22
I45
sg30
Nsg31
Nsg32
Nsbsg33
I3
sg34
F46.5
sbs(g8
g982
tp2223
g0
(g17
g2
Ntp2224
Rp2225
(dp2226
g21
F0.5
sg22
I45
sg23
g0
(g24
g25
(dp2227
I00
I45
stp2228
Rp2229
(dp2230
g22
I45
sg30
Nsg31
Nsg32
Nsbsg33
I3
sg34
F46.5
sbs(g8
S'wrd:internet>0'
p2231
tp2232
g0
(g17
g2
Ntp2233
Rp2234
(dp2235
g21
F0.5
sg22
I45
sg23
g0
(g24
g25
(dp2236
I00
I18
sI01
I27
stp2237
Rp2238
(dp2239
g22
I45
sg30
Nsg31
Nsg32
Nsbsg33
I3
sg34
F46.5
sbs(g10
g498
tp2240
g0
(g17
g2
Ntp2241
Rp2242
(dp2243
g21
F0.5
sg22
I45
sg23
g0
(g24
g25
(dp2244
I00
I45
stp2245
Rp2246
(dp2247
g22
I45
sg30
Nsg31
Nsg32
Nsbsg33
I3
sg34
F46.5
sbs(g10
g888
tp2248
g0
(g17
g2
Ntp2249
Rp2250
(dp2251
g21
F0.5
sg22
I45
sg23
g0
(g24
g25
(dp2252
I00
I25
sI01
I20
stp2253
Rp2254
(dp2255
g22
I45
sg30
Nsg31
Nsg32
Nsbsg33
I3
sg34
F46.5
sbs(g11
S'tri:(,,the,newspaper)>0'
p2256
tp2257
g0
(g17
g2
Ntp2258
Rp2259
(dp2260
g21
F0.5
sg22
I45
sg23
g0
(g24
g25
(dp2261
I00
I39
sI01
I6
stp2262
Rp2263
(dp2264
g22
I45
sg30
Nsg31
Nsg32
Nsbsg33
I3
sg34
F46.5
sbs(g10
S"tri:(of,china,'s)>0"
p2265
tp2266
g0
(g17
g2
Ntp2267
Rp2268
(dp2269
g21
F0.5
sg22
I45
sg23
g0
(g24
g25
(dp2270
I00
I45
stp2271
Rp2272
(dp2273
g22
I45
sg30
Nsg31
Nsg32
Nsbsg33
I3
sg34
F46.5
sbs(g12
g1478
tp2274
g0
(g17
g2
Ntp2275
Rp2276
(dp2277
g21
F0.5
sg22
I45
sg23
g0
(g24
g25
(dp2278
I00
I45
stp2279
Rp2280
(dp2281
g22
I45
sg30
Nsg31
Nsg32
Nsbsg33
I3
sg34
F46.5
sbs(g10
S'bi:(to,a)>0'
p2282
tp2283
g0
(g17
g2
Ntp2284
Rp2285
(dp2286
g21
F0.5
sg22
I45
sg23
g0
(g24
g25
(dp2287
I00
I30
sI01
I15
stp2288
Rp2289
(dp2290
g22
I45
sg30
Nsg31
Nsg32
Nsbsg33
I3
sg34
F46.5
sbs(g9
g134
tp2291
g0
(g17
g2
Ntp2292
Rp2293
(dp2294
g21
F0.5
sg22
I45
sg23
g0
(g24
g25
(dp2295
I00
I45
stp2296
Rp2297
(dp2298
g22
I45
sg30
Nsg31
Nsg32
Nsbsg33
I3
sg34
F46.5
sbs(g10
S'bi:(the,government)>0'
p2299
tp2300
g0
(g17
g2
Ntp2301
Rp2302
(dp2303
g21
F0.5
sg22
I45
sg23
g0
(g24
g25
(dp2304
I00
I43
sI01
I2
stp2305
Rp2306
(dp2307
g22
I45
sg30
Nsg31
Nsg32
Nsbsg33
I3
sg34
F46.5
sbs(g9
g44
tp2308
g0
(g17
g2
Ntp2309
Rp2310
(dp2311
g21
F0.5
sg22
I45
sg23
g0
(g24
g25
(dp2312
I00
I42
sI01
I3
stp2313
Rp2314
(dp2315
g22
I45
sg30
Nsg31
Nsg32
Nsbsg33
I3
sg34
F46.5
sbs(g9
S'skip:(million,$,))>0'
p2316
tp2317
g0
(g17
g2
Ntp2318
Rp2319
(dp2320
g21
F0.5
sg22
I45
sg23
g0
(g24
g25
(dp2321
I00
I44
sI01
I1
stp2322
Rp2323
(dp2324
g22
I45
sg30
Nsg31
Nsg32
Nsbsg33
I3
sg34
F46.5
sbs(g10
g620
tp2325
g0
(g17
g2
Ntp2326
Rp2327
(dp2328
g21
F0.5
sg22
I45
sg23
g0
(g24
g25
(dp2329
I00
I45
stp2330
Rp2331
(dp2332
g22
I45
sg30
Nsg31
Nsg32
Nsbsg33
I3
sg34
F46.5
sbs(g9
g454
tp2333
g0
(g17
g2
Ntp2334
Rp2335
(dp2336
g21
F0.5
sg22
I45
sg23
g0
(g24
g25
(dp2337
I00
I37
sI01
I8
stp2338
Rp2339
(dp2340
g22
I45
sg30
Nsg31
Nsg32
Nsbsg33
I3
sg34
F46.5
sbs(g9
g178
tp2341
g0
(g17
g2
Ntp2342
Rp2343
(dp2344
g21
F0.5
sg22
I45
sg23
g0
(g24
g25
(dp2345
I00
I45
stp2346
Rp2347
(dp2348
g22
I45
sg30
Nsg31
Nsg32
Nsbsg33
I3
sg34
F46.5
sbs(g9
S'skip:(say,of,.)>0'
p2349
tp2350
g0
(g17
g2
Ntp2351
Rp2352
(dp2353
g21
F0.5
sg22
I45
sg23
g0
(g24
g25
(dp2354
I00
I39
sI01
I6
stp2355
Rp2356
(dp2357
g22
I45
sg30
Nsg31
Nsg32
Nsbsg33
I3
sg34
F46.5
sbs(g10
g62
tp2358
g0
(g17
g2
Ntp2359
Rp2360
(dp2361
g21
F0.5
sg22
I45
sg23
g0
(g24
g25
(dp2362
I00
I45
stp2363
Rp2364
(dp2365
g22
I45
sg30
Nsg31
Nsg32
Nsbsg33
I3
sg34
F46.5
sbs(g8
S'skip:(the,.,the)>0'
p2366
tp2367
g0
(g17
g2
Ntp2368
Rp2369
(dp2370
g21
F0.5
sg22
I45
sg23
g0
(g24
g25
(dp2371
I00
I43
sI01
I2
stp2372
Rp2373
(dp2374
g22
I45
sg30
Nsg31
Nsg32
Nsbsg33
I3
sg34
F46.5
sbs(g12
g742
tp2375
g0
(g17
g2
Ntp2376
Rp2377
(dp2378
g21
F0.5
sg22
I45
sg23
g0
(g24
g25
(dp2379
I00
I38
sI01
I7
stp2380
Rp2381
(dp2382
g22
I45
sg30
Nsg31
Nsg32
Nsbsg33
I3
sg34
F46.5
sbs(g11
S'skip:(counter-revolutionary,or,for)>0'
p2383
tp2384
g0
(g17
g2
Ntp2385
Rp2386
(dp2387
g21
F0.5
sg22
I45
sg23
g0
(g24
g25
(dp2388
I00
I39
sI01
I6
stp2389
Rp2390
(dp2391
g22
I45
sg30
Nsg31
Nsg32
Nsbsg33
I3
sg34
F46.5
sbs(g8
g637
tp2392
g0
(g17
g2
Ntp2393
Rp2394
(dp2395
g21
F0.5
sg22
I45
sg23
g0
(g24
g25
(dp2396
I00
I44
sI01
I1
stp2397
Rp2398
(dp2399
g22
I45
sg30
Nsg31
Nsg32
Nsbsg33
I3
sg34
F46.5
sbs(g12
g1176
tp2400
g0
(g17
g2
Ntp2401
Rp2402
(dp2403
g21
F0.5
sg22
I45
sg23
g0
(g24
g25
(dp2404
I00
I44
sI01
I1
stp2405
Rp2406
(dp2407
g22
I45
sg30
Nsg31
Nsg32
Nsbsg33
I3
sg34
F46.5
sbs(g8
g383
tp2408
g0
(g17
g2
Ntp2409
Rp2410
(dp2411
g21
F0.5
sg22
I45
sg23
g0
(g24
g25
(dp2412
I00
I45
stp2413
Rp2414
(dp2415
g22
I45
sg30
Nsg31
Nsg32
Nsbsg33
I3
sg34
F46.5
sbs(g10
g1843
tp2416
g0
(g17
g2
Ntp2417
Rp2418
(dp2419
g21
F0.5
sg22
I45
sg23
g0
(g24
g25
(dp2420
I00
I45
stp2421
Rp2422
(dp2423
g22
I45
sg30
Nsg31
Nsg32
Nsbsg33
I3
sg34
F46.5
sbs(g10
g1106
tp2424
g0
(g17
g2
Ntp2425
Rp2426
(dp2427
g21
F0.5
sg22
I45
sg23
g0
(g24
g25
(dp2428
I00
I45
stp2429
Rp2430
(dp2431
g22
I45
sg30
Nsg31
Nsg32
Nsbsg33
I3
sg34
F46.5
sbs(g12
g374
tp2432
g0
(g17
g2
Ntp2433
Rp2434
(dp2435
g21
F0.5
sg22
I45
sg23
g0
(g24
g25
(dp2436
I00
I45
stp2437
Rp2438
(dp2439
g22
I45
sg30
Nsg31
Nsg32
Nsbsg33
I3
sg34
F46.5
sbs(g11
g2129
tp2440
g0
(g17
g2
Ntp2441
Rp2442
(dp2443
g21
F0.5
sg22
I45
sg23
g0
(g24
g25
(dp2444
I00
I39
sI01
I6
stp2445
Rp2446
(dp2447
g22
I45
sg30
Nsg31
Nsg32
Nsbsg33
I3
sg34
F46.5
sbs(g11
g742
tp2448
g0
(g17
g2
Ntp2449
Rp2450
(dp2451
g21
F0.5
sg22
I45
sg23
g0
(g24
g25
(dp2452
I00
I45
stp2453
Rp2454
(dp2455
g22
I45
sg30
Nsg31
Nsg32
Nsbsg33
I3
sg34
F46.5
sbs(g11
S'skip:(and,unreadable,password)>0'
p2456
tp2457
g0
(g17
g2
Ntp2458
Rp2459
(dp2460
g21
F0.5
sg22
I45
sg23
g0
(g24
g25
(dp2461
I00
I45
stp2462
Rp2463
(dp2464
g22
I45
sg30
Nsg31
Nsg32
Nsbsg33
I3
sg34
F46.5
sbs(g8
S'skip:(,,say,we)>0'
p2465
tp2466
g0
(g17
g2
Ntp2467
Rp2468
(dp2469
g21
F0.5
sg22
I45
sg23
g0
(g24
g25
(dp2470
I00
I45
stp2471
Rp2472
(dp2473
g22
I45
sg30
Nsg31
Nsg32
Nsbsg33
I3
sg34
F46.5
sbs(g10
S'wrd:$>0'
p2474
tp2475
g0
(g17
g2
Ntp2476
Rp2477
(dp2478
g21
F0.5
sg22
I45
sg23
g0
(g24
g25
(dp2479
I00
I9
sI01
I36
stp2480
Rp2481
(dp2482
g22
I45
sg30
Nsg31
Nsg32
Nsbsg33
I3
sg34
F46.5
sbs(g11
S'skip:(market,say,of)>0'
p2483
tp2484
g0
(g17
g2
Ntp2485
Rp2486
(dp2487
g21
F0.5
sg22
I45
sg23
g0
(g24
g25
(dp2488
I00
I45
stp2489
Rp2490
(dp2491
g22
I45
sg30
Nsg31
Nsg32
Nsbsg33
I3
sg34
F46.5
sbs(g12
g2349
tp2492
g0
(g17
g2
Ntp2493
Rp2494
(dp2495
g21
F0.5
sg22
I45
sg23
g0
(g24
g25
(dp2496
I00
I45
stp2497
Rp2498
(dp2499
g22
I45
sg30
Nsg31
Nsg32
Nsbsg33
I3
sg34
F46.5
sbs(g10
g44
tp2500
g0
(g17
g2
Ntp2501
Rp2502
(dp2503
g21
F0.5
sg22
I45
sg23
g0
(g24
g25
(dp2504
I00
I45
stp2505
Rp2506
(dp2507
g22
I45
sg30
Nsg31
Nsg32
Nsbsg33
I3
sg34
F46.5
sbs(g8
g534
tp2508
g0
(g17
g2
Ntp2509
Rp2510
(dp2511
g21
F0.5
sg22
I45
sg23
g0
(g24
g25
(dp2512
I00
I40
sI01
I5
stp2513
Rp2514
(dp2515
g22
I45
sg30
Nsg31
Nsg32
Nsbsg33
I3
sg34
F46.5
sbs(g8
g516
tp2516
g0
(g17
g2
Ntp2517
Rp2518
(dp2519
g21
F0.5
sg22
I45
sg23
g0
(g24
g25
(dp2520
I00
I32
sI01
I13
stp2521
Rp2522
(dp2523
g22
I45
sg30
Nsg31
Nsg32
Nsbsg33
I3
sg34
F46.5
sbs(g8
S"bi:('',the)>0"
p2524
tp2525
g0
(g17
g2
Ntp2526
Rp2527
(dp2528
g21
F0.5
sg22
I45
sg23
g0
(g24
g25
(dp2529
I00
I19
sI01
I26
stp2530
Rp2531
(dp2532
g22
I45
sg30
Nsg31
Nsg32
Nsbsg33
I3
sg34
F46.5
sbs(g10
g481
tp2533
g0
(g17
g2
Ntp2534
Rp2535
(dp2536
g21
F0.5
sg22
I45
sg23
g0
(g24
g25
(dp2537
I00
I45
stp2538
Rp2539
(dp2540
g22
I45
sg30
Nsg31
Nsg32
Nsbsg33
I3
sg34
F46.5
sbs(g9
g1018
tp2541
g0
(g17
g2
Ntp2542
Rp2543
(dp2544
g21
F0.5
sg22
I45
sg23
g0
(g24
g25
(dp2545
I00
I26
sI01
I19
stp2546
Rp2547
(dp2548
g22
I45
sg30
Nsg31
Nsg32
Nsbsg33
I3
sg34
F46.5
sbs(g8
g1062
tp2549
g0
(g17
g2
Ntp2550
Rp2551
(dp2552
g21
F0.5
sg22
I45
sg23
g0
(g24
g25
(dp2553
I00
I45
stp2554
Rp2555
(dp2556
g22
I45
sg30
Nsg31
Nsg32
Nsbsg33
I3
sg34
F46.5
sbs(g10
g2349
tp2557
g0
(g17
g2
Ntp2558
Rp2559
(dp2560
g21
F0.5
sg22
I45
sg23
g0
(g24
g25
(dp2561
I00
I45
stp2562
Rp2563
(dp2564
g22
I45
sg30
Nsg31
Nsg32
Nsbsg33
I3
sg34
F46.5
sbs(g11
S'skip:(a,to,for)>0'
p2565
tp2566
g0
(g17
g2
Ntp2567
Rp2568
(dp2569
g21
F0.5
sg22
I45
sg23
g0
(g24
g25
(dp2570
I00
I39
sI01
I6
stp2571
Rp2572
(dp2573
g22
I45
sg30
Nsg31
Nsg32
Nsbsg33
I3
sg34
F46.5
sbs(g9
S'bi:(to,be)>0'
p2574
tp2575
g0
(g17
g2
Ntp2576
Rp2577
(dp2578
g21
F0.5
sg22
I45
sg23
g0
(g24
g25
(dp2579
I00
I24
sI01
I21
stp2580
Rp2581
(dp2582
g22
I45
sg30
Nsg31
Nsg32
Nsbsg33
I3
sg34
F46.5
sbs(g11
g35
tp2583
g0
(g17
g2
Ntp2584
Rp2585
(dp2586
g21
F0.5
sg22
I45
sg23
g0
(g24
g25
(dp2587
I00
I31
sI01
I14
stp2588
Rp2589
(dp2590
g22
I45
sg30
Nsg31
Nsg32
Nsbsg33
I3
sg34
F46.5
sbs(g8
g646
tp2591
g0
(g17
g2
Ntp2592
Rp2593
(dp2594
g21
F0.5
sg22
I45
sg23
g0
(g24
g25
(dp2595
I00
I45
stp2596
Rp2597
(dp2598
g22
I45
sg30
Nsg31
Nsg32
Nsbsg33
I3
sg34
F46.5
sbs(g12
S'skip:(.,be,the)>0'
p2599
tp2600
g0
(g17
g2
Ntp2601
Rp2602
(dp2603
g21
F0.5
sg22
I45
sg23
g0
(g24
g25
(dp2604
I00
I45
stp2605
Rp2606
(dp2607
g22
I45
sg30
Nsg31
Nsg32
Nsbsg33
I3
sg34
F46.5
sbs(g11
g1408
tp2608
g0
(g17
g2
Ntp2609
Rp2610
(dp2611
g21
F0.5
sg22
I45
sg23
g0
(g24
g25
(dp2612
I00
I45
stp2613
Rp2614
(dp2615
g22
I45
sg30
Nsg31
Nsg32
Nsbsg33
I3
sg34
F46.5
sbs(g11
S"tri:(.,'',we)>0"
p2616
tp2617
g0
(g17
g2
Ntp2618
Rp2619
(dp2620
g21
F0.5
sg22
I45
sg23
g0
(g24
g25
(dp2621
I00
I36
sI01
I9
stp2622
Rp2623
(dp2624
g22
I45
sg30
Nsg31
Nsg32
Nsbsg33
I3
sg34
F46.5
sbs(g11
S'wrd:czech>0'
p2625
tp2626
g0
(g17
g2
Ntp2627
Rp2628
(dp2629
g21
F0.5
sg22
I45
sg23
g0
(g24
g25
(dp2630
I00
I45
stp2631
Rp2632
(dp2633
g22
I45
sg30
Nsg31
Nsg32
Nsbsg33
I3
sg34
F46.5
sbs(g10
S'skip:(profit,year,30)>0'
p2634
tp2635
g0
(g17
g2
Ntp2636
Rp2637
(dp2638
g21
F0.5
sg22
I45
sg23
g0
(g24
g25
(dp2639
I00
I45
stp2640
Rp2641
(dp2642
g22
I45
sg30
Nsg31
Nsg32
Nsbsg33
I3
sg34
F46.5
sbs(g8
g2071
tp2643
g0
(g17
g2
Ntp2644
Rp2645
(dp2646
g21
F0.5
sg22
I45
sg23
g0
(g24
g25
(dp2647
I00
I45
stp2648
Rp2649
(dp2650
g22
I45
sg30
Nsg31
Nsg32
Nsbsg33
I3
sg34
F46.5
sbs(g11
g1495
tp2651
g0
(g17
g2
Ntp2652
Rp2653
(dp2654
g21
F0.5
sg22
I45
sg23
g0
(g24
g25
(dp2655
I00
I37
sI01
I8
stp2656
Rp2657
(dp2658
g22
I45
sg30
Nsg31
Nsg32
Nsbsg33
I3
sg34
F46.5
sbs(g9
g1640
tp2659
g0
(g17
g2
Ntp2660
Rp2661
(dp2662
g21
F0.5
sg22
I45
sg23
g0
(g24
g25
(dp2663
I00
I45
stp2664
Rp2665
(dp2666
g22
I45
sg30
Nsg31
Nsg32
Nsbsg33
I3
sg34
F46.5
sbs(g11
g293
tp2667
g0
(g17
g2
Ntp2668
Rp2669
(dp2670
g21
F0.5
sg22
I45
sg23
g0
(g24
g25
(dp2671
I00
I9
sI01
I36
stp2672
Rp2673
(dp2674
g22
I45
sg30
Nsg31
Nsg32
Nsbsg33
I3
sg34
F46.5
sbs(g11
g2349
tp2675
g0
(g17
g2
Ntp2676
Rp2677
(dp2678
g21
F0.5
sg22
I45
sg23
g0
(g24
g25
(dp2679
I00
I45
stp2680
Rp2681
(dp2682
g22
I45
sg30
Nsg31
Nsg32
Nsbsg33
I3
sg34
F46.5
sbs(g10
g534
tp2683
g0
(g17
g2
Ntp2684
Rp2685
(dp2686
g21
F0.5
sg22
I45
sg23
g0
(g24
g25
(dp2687
I00
I43
sI01
I2
stp2688
Rp2689
(dp2690
g22
I45
sg30
Nsg31
Nsg32
Nsbsg33
I3
sg34
F46.5
sbs(g11
g1417
tp2691
g0
(g17
g2
Ntp2692
Rp2693
(dp2694
g21
F0.5
sg22
I45
sg23
g0
(g24
g25
(dp2695
I00
I45
stp2696
Rp2697
(dp2698
g22
I45
sg30
Nsg31
Nsg32
Nsbsg33
I3
sg34
F46.5
sbs(g9
g1315
tp2699
g0
(g17
g2
Ntp2700
Rp2701
(dp2702
g21
F0.5
sg22
I45
sg23
g0
(g24
g25
(dp2703
I00
I11
sI01
I34
stp2704
Rp2705
(dp2706
g22
I45
sg30
Nsg31
Nsg32
Nsbsg33
I3
sg34
F46.5
sbs(g9
g1981
tp2707
g0
(g17
g2
Ntp2708
Rp2709
(dp2710
g21
F0.5
sg22
I45
sg23
g0
(g24
g25
(dp2711
I00
I45
stp2712
Rp2713
(dp2714
g22
I45
sg30
Nsg31
Nsg32
Nsbsg33
I3
sg34
F46.5
sbs(g11
g1245
tp2715
g0
(g17
g2
Ntp2716
Rp2717
(dp2718
g21
F0.5
sg22
I45
sg23
g0
(g24
g25
(dp2719
I00
I45
stp2720
Rp2721
(dp2722
g22
I45
sg30
Nsg31
Nsg32
Nsbsg33
I3
sg34
F46.5
sbs(g10
g733
tp2723
g0
(g17
g2
Ntp2724
Rp2725
(dp2726
g21
F0.5
sg22
I45
sg23
g0
(g24
g25
(dp2727
I00
I45
stp2728
Rp2729
(dp2730
g22
I45
sg30
Nsg31
Nsg32
Nsbsg33
I3
sg34
F46.5
sbs(g11
g1185
tp2731
g0
(g17
g2
Ntp2732
Rp2733
(dp2734
g21
F0.5
sg22
I45
sg23
g0
(g24
g25
(dp2735
I00
I38
sI01
I7
stp2736
Rp2737
(dp2738
g22
I45
sg30
Nsg31
Nsg32
Nsbsg33
I3
sg34
F46.5
sbs(g9
g2616
tp2739
g0
(g17
g2
Ntp2740
Rp2741
(dp2742
g21
F0.5
sg22
I45
sg23
g0
(g24
g25
(dp2743
I00
I42
sI01
I3
stp2744
Rp2745
(dp2746
g22
I45
sg30
Nsg31
Nsg32
Nsbsg33
I3
sg34
F46.5
sbs(g9
S'tri:(billion,crown,.)>0'
p2747
tp2748
g0
(g17
g2
Ntp2749
Rp2750
(dp2751
g21
F0.5
sg22
I45
sg23
g0
(g24
g25
(dp2752
I00
I35
sI01
I10
stp2753
Rp2754
(dp2755
g22
I45
sg30
Nsg31
Nsg32
Nsbsg33
I3
sg34
F46.5
sbs(g8
g836
tp2756
g0
(g17
g2
Ntp2757
Rp2758
(dp2759
g21
F0.5
sg22
I45
sg23
g0
(g24
g25
(dp2760
I00
I44
sI01
I1
stp2761
Rp2762
(dp2763
g22
I45
sg30
Nsg31
Nsg32
Nsbsg33
I3
sg34
F46.5
sbs(g11
g1520
tp2764
g0
(g17
g2
Ntp2765
Rp2766
(dp2767
g21
F0.5
sg22
I45
sg23
g0
(g24
g25
(dp2768
I00
I45
stp2769
Rp2770
(dp2771
g22
I45
sg30
Nsg31
Nsg32
Nsbsg33
I3
sg34
F46.5
sbs(g11
g222
tp2772
g0
(g17
g2
Ntp2773
Rp2774
(dp2775
g21
F0.5
sg22
I45
sg23
g0
(g24
g25
(dp2776
I00
I45
stp2777
Rp2778
(dp2779
g22
I45
sg30
Nsg31
Nsg32
Nsbsg33
I3
sg34
F46.5
sbs(g8
g2634
tp2780
g0
(g17
g2
Ntp2781
Rp2782
(dp2783
g21
F0.5
sg22
I45
sg23
g0
(g24
g25
(dp2784
I00
I45
stp2785
Rp2786
(dp2787
g22
I45
sg30
Nsg31
Nsg32
Nsbsg33
I3
sg34
F46.5
sbs(g9
g1071
tp2788
g0
(g17
g2
Ntp2789
Rp2790
(dp2791
g21
F0.5
sg22
I45
sg23
g0
(g24
g25
(dp2792
I00
I45
stp2793
Rp2794
(dp2795
g22
I45
sg30
Nsg31
Nsg32
Nsbsg33
I3
sg34
F46.5
sbs(g9
g116
tp2796
g0
(g17
g2
Ntp2797
Rp2798
(dp2799
g21
F0.5
sg22
I45
sg23
g0
(g24
g25
(dp2800
I00
I44
sI01
I1
stp2801
Rp2802
(dp2803
g22
I45
sg30
Nsg31
Nsg32
Nsbsg33
I3
sg34
F46.5
sbs(g8
g1793
tp2804
g0
(g17
g2
Ntp2805
Rp2806
(dp2807
g21
F0.5
sg22
I45
sg23
g0
(g24
g25
(dp2808
I00
I13
sI01
I32
stp2809
Rp2810
(dp2811
g22
I45
sg30
Nsg31
Nsg32
Nsbsg33
I3
sg34
F46.5
sbs(g12
g1580
tp2812
g0
(g17
g2
Ntp2813
Rp2814
(dp2815
g21
F0.5
sg22
I45
sg23
g0
(g24
g25
(dp2816
I00
I10
sI01
I35
stp2817
Rp2818
(dp2819
g22
I45
sg30
Nsg31
Nsg32
Nsbsg33
I3
sg34
F46.5
sbs(g10
S'tri:(c,&,amp)>0'
p2820
tp2821
g0
(g17
g2
Ntp2822
Rp2823
(dp2824
g21
F0.5
sg22
I45
sg23
g0
(g24
g25
(dp2825
I00
I40
sI01
I5
stp2826
Rp2827
(dp2828
g22
I45
sg30
Nsg31
Nsg32
Nsbsg33
I3
sg34
F46.5
sbs(g8
S'tri:(in,the,second)>0'
p2829
tp2830
g0
(g17
g2
Ntp2831
Rp2832
(dp2833
g21
F0.5
sg22
I45
sg23
g0
(g24
g25
(dp2834
I00
I45
stp2835
Rp2836
(dp2837
g22
I45
sg30
Nsg31
Nsg32
Nsbsg33
I3
sg34
F46.5
sbs(g8
g2456
tp2838
g0
(g17
g2
Ntp2839
Rp2840
(dp2841
g21
F0.5
sg22
I45
sg23
g0
(g24
g25
(dp2842
I00
I39
sI01
I6
stp2843
Rp2844
(dp2845
g22
I45
sg30
Nsg31
Nsg32
Nsbsg33
I3
sg34
F46.5
sbs(g12
g2265
tp2846
g0
(g17
g2
Ntp2847
Rp2848
(dp2849
g21
F0.5
sg22
I45
sg23
g0
(g24
g25
(dp2850
I00
I45
stp2851
Rp2852
(dp2853
g22
I45
sg30
Nsg31
Nsg32
Nsbsg33
I3
sg34
F46.5
sbs(g11
g2173
tp2854
g0
(g17
g2
Ntp2855
Rp2856
(dp2857
g21
F0.5
sg22
I45
sg23
g0
(g24
g25
(dp2858
I00
I45
stp2859
Rp2860
(dp2861
g22
I45
sg30
Nsg31
Nsg32
Nsbsg33
I3
sg34
F46.5
sbs(g8
g1640
tp2862
g0
(g17
g2
Ntp2863
Rp2864
(dp2865
g21
F0.5
sg22
I45
sg23
g0
(g24
g25
(dp2866
I00
I45
stp2867
Rp2868
(dp2869
g22
I45
sg30
Nsg31
Nsg32
Nsbsg33
I3
sg34
F46.5
sbs(g11
g810
tp2870
g0
(g17
g2
Ntp2871
Rp2872
(dp2873
g21
F0.5
sg22
I45
sg23
g0
(g24
g25
(dp2874
I00
I43
sI01
I2
stp2875
Rp2876
(dp2877
g22
I45
sg30
Nsg31
Nsg32
Nsbsg33
I3
sg34
F46.5
sbs(g8
g1674
tp2878
g0
(g17
g2
Ntp2879
Rp2880
(dp2881
g21
F0.5
sg22
I45
sg23
g0
(g24
g25
(dp2882
I00
I22
sI01
I23
stp2883
Rp2884
(dp2885
g22
I45
sg30
Nsg31
Nsg32
Nsbsg33
I3
sg34
F46.5
sbs(g12
g973
tp2886
g0
(g17
g2
Ntp2887
Rp2888
(dp2889
g21
F0.5
sg22
I45
sg23
g0
(g24
g25
(dp2890
I00
I43
sI01
I2
stp2891
Rp2892
(dp2893
g22
I45
sg30
Nsg31
Nsg32
Nsbsg33
I3
sg34
F46.5
sbs(g11
g169
tp2894
g0
(g17
g2
Ntp2895
Rp2896
(dp2897
g21
F0.5
sg22
I45
sg23
g0
(g24
g25
(dp2898
I00
I45
stp2899
Rp2900
(dp2901
g22
I45
sg30
Nsg31
Nsg32
Nsbsg33
I3
sg34
F46.5
sbs(g12
g1793
tp2902
g0
(g17
g2
Ntp2903
Rp2904
(dp2905
g21
F0.5
sg22
I45
sg23
g0
(g24
g25
(dp2906
I00
I28
sI01
I17
stp2907
Rp2908
(dp2909
g22
I45
sg30
Nsg31
Nsg32
Nsbsg33
I3
sg34
F46.5
sbs(g10
S'tri:(.,analyst,say)>0'
p2910
tp2911
g0
(g17
g2
Ntp2912
Rp2913
(dp2914
g21
F0.5
sg22
I45
sg23
g0
(g24
g25
(dp2915
I00
I43
sI01
I2
stp2916
Rp2917
(dp2918
g22
I45
sg30
Nsg31
Nsg32
Nsbsg33
I3
sg34
F46.5
sbs(g10
g293
tp2919
g0
(g17
g2
Ntp2920
Rp2921
(dp2922
g21
F0.5
sg22
I45
sg23
g0
(g24
g25
(dp2923
I00
I3
sI01
I42
stp2924
Rp2925
(dp2926
g22
I45
sg30
Nsg31
Nsg32
Nsbsg33
I3
sg34
F46.5
sbs(g11
S'tri:(,,accord,to)>0'
p2927
tp2928
g0
(g17
g2
Ntp2929
Rp2930
(dp2931
g21
F0.5
sg22
I45
sg23
g0
(g24
g25
(dp2932
I00
I43
sI01
I2
stp2933
Rp2934
(dp2935
g22
I45
sg30
Nsg31
Nsg32
Nsbsg33
I3
sg34
F46.5
sbs(g12
g222
tp2936
g0
(g17
g2
Ntp2937
Rp2938
(dp2939
g21
F0.5
sg22
I45
sg23
g0
(g24
g25
(dp2940
I00
I45
stp2941
Rp2942
(dp2943
g22
I45
sg30
Nsg31
Nsg32
Nsbsg33
I3
sg34
F46.5
sbs(g12
g267
tp2944
g0
(g17
g2
Ntp2945
Rp2946
(dp2947
g21
F0.5
sg22
I45
sg23
g0
(g24
g25
(dp2948
I00
I38
sI01
I7
stp2949
Rp2950
(dp2951
g22
I45
sg30
Nsg31
Nsg32
Nsbsg33
I3
sg34
F46.5
sbs(g11
g2282
tp2952
g0
(g17
g2
Ntp2953
Rp2954
(dp2955
g21
F0.5
sg22
I45
sg23
g0
(g24
g25
(dp2956
I00
I33
sI01
I12
stp2957
Rp2958
(dp2959
g22
I45
sg30
Nsg31
Nsg32
Nsbsg33
I3
sg34
F46.5
sbs(g12
g2910
tp2960
g0
(g17
g2
Ntp2961
Rp2962
(dp2963
g21
F0.5
sg22
I45
sg23
g0
(g24
g25
(dp2964
I00
I31
sI01
I14
stp2965
Rp2966
(dp2967
g22
I45
sg30
Nsg31
Nsg32
Nsbsg33
I3
sg34
F46.5
sbs(g8
g463
tp2968
g0
(g17
g2
Ntp2969
Rp2970
(dp2971
g21
F0.5
sg22
I45
sg23
g0
(g24
g25
(dp2972
I00
I45
stp2973
Rp2974
(dp2975
g22
I45
sg30
Nsg31
Nsg32
Nsbsg33
I3
sg34
F46.5
sbs(g11
S"skip:('',in,.)>0"
p2976
tp2977
g0
(g17
g2
Ntp2978
Rp2979
(dp2980
g21
F0.5
sg22
I45
sg23
g0
(g24
g25
(dp2981
I00
I43
sI01
I2
stp2982
Rp2983
(dp2984
g22
I45
sg30
Nsg31
Nsg32
Nsbsg33
I3
sg34
F46.5
sbs(g8
g284
tp2985
g0
(g17
g2
Ntp2986
Rp2987
(dp2988
g21
F0.5
sg22
I45
sg23
g0
(g24
g25
(dp2989
I00
I37
sI01
I8
stp2990
Rp2991
(dp2992
g22
I45
sg30
Nsg31
Nsg32
Nsbsg33
I3
sg34
F46.5
sbs(g9
S'wrd:china>0'
p2993
tp2994
g0
(g17
g2
Ntp2995
Rp2996
(dp2997
g21
F0.5
sg22
I45
sg23
g0
(g24
g25
(dp2998
I00
I45
stp2999
Rp3000
(dp3001
g22
I45
sg30
Nsg31
Nsg32
Nsbsg33
I3
sg34
F46.5
sbs(g11
g1776
tp3002
g0
(g17
g2
Ntp3003
Rp3004
(dp3005
g21
F0.5
sg22
I45
sg23
g0
(g24
g25
(dp3006
I00
I45
stp3007
Rp3008
(dp3009
g22
I45
sg30
Nsg31
Nsg32
Nsbsg33
I3
sg34
F46.5
sbs(g9
g2054
tp3010
g0
(g17
g2
Ntp3011
Rp3012
(dp3013
g21
F0.5
sg22
I45
sg23
g0
(g24
g25
(dp3014
I00
I14
sI01
I31
stp3015
Rp3016
(dp3017
g22
I45
sg30
Nsg31
Nsg32
Nsbsg33
I3
sg34
F46.5
sbs(g9
g258
tp3018
g0
(g17
g2
Ntp3019
Rp3020
(dp3021
g21
F0.5
sg22
I45
sg23
g0
(g24
g25
(dp3022
I00
I45
stp3023
Rp3024
(dp3025
g22
I45
sg30
Nsg31
Nsg32
Nsbsg33
I3
sg34
F46.5
sbs(g11
g1981
tp3026
g0
(g17
g2
Ntp3027
Rp3028
(dp3029
g21
F0.5
sg22
I45
sg23
g0
(g24
g25
(dp3030
I00
I38
sI01
I7
stp3031
Rp3032
(dp3033
g22
I45
sg30
Nsg31
Nsg32
Nsbsg33
I3
sg34
F46.5
sbs(g12
S'bi:(say,the)>0'
p3034
tp3035
g0
(g17
g2
Ntp3036
Rp3037
(dp3038
g21
F0.5
sg22
I45
sg23
g0
(g24
g25
(dp3039
I00
I13
sI01
I32
stp3040
Rp3041
(dp3042
g22
I45
sg30
Nsg31
Nsg32
Nsbsg33
I3
sg34
F46.5
sbs(g12
g178
tp3043
g0
(g17
g2
Ntp3044
Rp3045
(dp3046
g21
F0.5
sg22
I45
sg23
g0
(g24
g25
(dp3047
I00
I45
stp3048
Rp3049
(dp3050
g22
I45
sg30
Nsg31
Nsg32
Nsbsg33
I3
sg34
F46.5
sbs(g9
g525
tp3051
g0
(g17
g2
Ntp3052
Rp3053
(dp3054
g21
F0.5
sg22
I45
sg23
g0
(g24
g25
(dp3055
I00
I37
sI01
I8
stp3056
Rp3057
(dp3058
g22
I45
sg30
Nsg31
Nsg32
Nsbsg33
I3
sg34
F46.5
sbs(g11
g1263
tp3059
g0
(g17
g2
Ntp3060
Rp3061
(dp3062
g21
F0.5
sg22
I45
sg23
g0
(g24
g25
(dp3063
I00
I44
sI01
I1
stp3064
Rp3065
(dp3066
g22
I45
sg30
Nsg31
Nsg32
Nsbsg33
I3
sg34
F46.5
sbs(g12
g2316
tp3067
g0
(g17
g2
Ntp3068
Rp3069
(dp3070
g21
F0.5
sg22
I45
sg23
g0
(g24
g25
(dp3071
I00
I36
sI01
I9
stp3072
Rp3073
(dp3074
g22
I45
sg30
Nsg31
Nsg32
Nsbsg33
I3
sg34
F46.5
sbs(g9
g673
tp3075
g0
(g17
g2
Ntp3076
Rp3077
(dp3078
g21
F0.5
sg22
I45
sg23
g0
(g24
g25
(dp3079
I00
I15
sI01
I30
stp3080
Rp3081
(dp3082
g22
I45
sg30
Nsg31
Nsg32
Nsbsg33
I3
sg34
F46.5
sbs(g11
g2231
tp3083
g0
(g17
g2
Ntp3084
Rp3085
(dp3086
g21
F0.5
sg22
I45
sg23
g0
(g24
g25
(dp3087
I00
I45
stp3088
Rp3089
(dp3090
g22
I45
sg30
Nsg31
Nsg32
Nsbsg33
I3
sg34
F46.5
sbs(g11
g2316
tp3091
g0
(g17
g2
Ntp3092
Rp3093
(dp3094
g21
F0.5
sg22
I45
sg23
g0
(g24
g25
(dp3095
I00
I43
sI01
I2
stp3096
Rp3097
(dp3098
g22
I45
sg30
Nsg31
Nsg32
Nsbsg33
I3
sg34
F46.5
sbs(g11
S'bi:(the,first)>0'
p3099
tp3100
g0
(g17
g2
Ntp3101
Rp3102
(dp3103
g21
F0.5
sg22
I45
sg23
g0
(g24
g25
(dp3104
I00
I35
sI01
I10
stp3105
Rp3106
(dp3107
g22
I45
sg30
Nsg31
Nsg32
Nsbsg33
I3
sg34
F46.5
sbs(g8
g80
tp3108
g0
(g17
g2
Ntp3109
Rp3110
(dp3111
g21
F0.5
sg22
I45
sg23
g0
(g24
g25
(dp3112
I00
I45
stp3113
Rp3114
(dp3115
g22
I45
sg30
Nsg31
Nsg32
Nsbsg33
I3
sg34
F46.5
sbs(g8
g320
tp3116
g0
(g17
g2
Ntp3117
Rp3118
(dp3119
g21
F0.5
sg22
I45
sg23
g0
(g24
g25
(dp3120
I00
I15
sI01
I30
stp3121
Rp3122
(dp3123
g22
I45
sg30
Nsg31
Nsg32
Nsbsg33
I3
sg34
F46.5
sbs(g10
g1555
tp3124
g0
(g17
g2
Ntp3125
Rp3126
(dp3127
g21
F0.5
sg22
I45
sg23
g0
(g24
g25
(dp3128
I00
I45
stp3129
Rp3130
(dp3131
g22
I45
sg30
Nsg31
Nsg32
Nsbsg33
I3
sg34
F46.5
sbs(g10
S'skip:(be,the,.)>0'
p3132
tp3133
g0
(g17
g2
Ntp3134
Rp3135
(dp3136
g21
F0.5
sg22
I45
sg23
g0
(g24
g25
(dp3137
I00
I33
sI01
I12
stp3138
Rp3139
(dp3140
g22
I45
sg30
Nsg31
Nsg32
Nsbsg33
I3
sg34
F46.5
sbs(g12
g2634
tp3141
g0
(g17
g2
Ntp3142
Rp3143
(dp3144
g21
F0.5
sg22
I45
sg23
g0
(g24
g25
(dp3145
I00
I36
sI01
I9
stp3146
Rp3147
(dp3148
g22
I45
sg30
Nsg31
Nsg32
Nsbsg33
I3
sg34
F46.5
sbs(g9
g1185
tp3149
g0
(g17
g2
Ntp3150
Rp3151
(dp3152
g21
F0.5
sg22
I45
sg23
g0
(g24
g25
(dp3153
I00
I32
sI01
I13
stp3154
Rp3155
(dp3156
g22
I45
sg30
Nsg31
Nsg32
Nsbsg33
I3
sg34
F46.5
sbs(g8
S'skip:(.,already,year)>0'
p3157
tp3158
g0
(g17
g2
Ntp3159
Rp3160
(dp3161
g21
F0.5
sg22
I45
sg23
g0
(g24
g25
(dp3162
I00
I45
stp3163
Rp3164
(dp3165
g22
I45
sg30
Nsg31
Nsg32
Nsbsg33
I3
sg34
F46.5
sbs(g12
g1776
tp3166
g0
(g17
g2
Ntp3167
Rp3168
(dp3169
g21
F0.5
sg22
I45
sg23
g0
(g24
g25
(dp3170
I00
I45
stp3171
Rp3172
(dp3173
g22
I45
sg30
Nsg31
Nsg32
Nsbsg33
I3
sg34
F46.5
sbs(g9
g1776
tp3174
g0
(g17
g2
Ntp3175
Rp3176
(dp3177
g21
F0.5
sg22
I45
sg23
g0
(g24
g25
(dp3178
I00
I44
sI01
I1
stp3179
Rp3180
(dp3181
g22
I45
sg30
Nsg31
Nsg32
Nsbsg33
I3
sg34
F46.5
sbs(g8
g1665
tp3182
g0
(g17
g2
Ntp3183
Rp3184
(dp3185
g21
F0.5
sg22
I45
sg23
g0
(g24
g25
(dp3186
I00
I45
stp3187
Rp3188
(dp3189
g22
I45
sg30
Nsg31
Nsg32
Nsbsg33
I3
sg34
F46.5
sbs(g12
g365
tp3190
g0
(g17
g2
Ntp3191
Rp3192
(dp3193
g21
F0.5
sg22
I45
sg23
g0
(g24
g25
(dp3194
I00
I13
sI01
I32
stp3195
Rp3196
(dp3197
g22
I45
sg30
Nsg31
Nsg32
Nsbsg33
I3
sg34
F46.5
sbs(g12
g15
tp3198
g0
(g17
g2
Ntp3199
Rp3200
(dp3201
g21
F0.5
sg22
I45
sg23
g0
(g24
g25
(dp3202
I00
I45
stp3203
Rp3204
(dp3205
g22
I45
sg30
Nsg31
Nsg32
Nsbsg33
I3
sg34
F46.5
sbs(g8
g2054
tp3206
g0
(g17
g2
Ntp3207
Rp3208
(dp3209
g21
F0.5
sg22
I45
sg23
g0
(g24
g25
(dp3210
I00
I27
sI01
I18
stp3211
Rp3212
(dp3213
g22
I45
sg30
Nsg31
Nsg32
Nsbsg33
I3
sg34
F46.5
sbs(g9
g1674
tp3214
g0
(g17
g2
Ntp3215
Rp3216
(dp3217
g21
F0.5
sg22
I45
sg23
g0
(g24
g25
(dp3218
I00
I24
sI01
I21
stp3219
Rp3220
(dp3221
g22
I45
sg30
Nsg31
Nsg32
Nsbsg33
I3
sg34
F46.5
sbs(g12
g125
tp3222
g0
(g17
g2
Ntp3223
Rp3224
(dp3225
g21
F0.5
sg22
I45
sg23
g0
(g24
g25
(dp3226
I00
I43
sI01
I2
stp3227
Rp3228
(dp3229
g22
I45
sg30
Nsg31
Nsg32
Nsbsg33
I3
sg34
F46.5
sbs(g12
g481
tp3230
g0
(g17
g2
Ntp3231
Rp3232
(dp3233
g21
F0.5
sg22
I45
sg23
g0
(g24
g25
(dp3234
I00
I45
stp3235
Rp3236
(dp3237
g22
I45
sg30
Nsg31
Nsg32
Nsbsg33
I3
sg34
F46.5
sbs(g11
g481
tp3238
g0
(g17
g2
Ntp3239
Rp3240
(dp3241
g21
F0.5
sg22
I45
sg23
g0
(g24
g25
(dp3242
I00
I45
stp3243
Rp3244
(dp3245
g22
I45
sg30
Nsg31
Nsg32
Nsbsg33
I3
sg34
F46.5
sbs(g10
g507
tp3246
g0
(g17
g2
Ntp3247
Rp3248
(dp3249
g21
F0.5
sg22
I45
sg23
g0
(g24
g25
(dp3250
I00
I44
sI01
I1
stp3251
Rp3252
(dp3253
g22
I45
sg30
Nsg31
Nsg32
Nsbsg33
I3
sg34
F46.5
sbs(g12
S'tri:(from,a,$)>0'
p3254
tp3255
g0
(g17
g2
Ntp3256
Rp3257
(dp3258
g21
F0.5
sg22
I45
sg23
g0
(g24
g25
(dp3259
I00
I26
sI01
I19
stp3260
Rp3261
(dp3262
g22
I45
sg30
Nsg31
Nsg32
Nsbsg33
I3
sg34
F46.5
sbs(g11
g62
tp3263
g0
(g17
g2
Ntp3264
Rp3265
(dp3266
g21
F0.5
sg22
I45
sg23
g0
(g24
g25
(dp3267
I00
I45
stp3268
Rp3269
(dp3270
g22
I45
sg30
Nsg31
Nsg32
Nsbsg33
I3
sg34
F46.5
sbs(g11
g2104
tp3271
g0
(g17
g2
Ntp3272
Rp3273
(dp3274
g21
F0.5
sg22
I45
sg23
g0
(g24
g25
(dp3275
I00
I39
sI01
I6
stp3276
Rp3277
(dp3278
g22
I45
sg30
Nsg31
Nsg32
Nsbsg33
I3
sg34
F46.5
sbs(g8
g1298
tp3279
g0
(g17
g2
Ntp3280
Rp3281
(dp3282
g21
F0.5
sg22
I45
sg23
g0
(g24
g25
(dp3283
I00
I45
stp3284
Rp3285
(dp3286
g22
I45
sg30
Nsg31
Nsg32
Nsbsg33
I3
sg34
F46.5
sbs(g11
g1141
tp3287
g0
(g17
g2
Ntp3288
Rp3289
(dp3290
g21
F0.5
sg22
I45
sg23
g0
(g24
g25
(dp3291
I00
I15
sI01
I30
stp3292
Rp3293
(dp3294
g22
I45
sg30
Nsg31
Nsg32
Nsbsg33
I3
sg34
F46.5
sbs(g10
g284
tp3295
g0
(g17
g2
Ntp3296
Rp3297
(dp3298
g21
F0.5
sg22
I45
sg23
g0
(g24
g25
(dp3299
I00
I34
sI01
I11
stp3300
Rp3301
(dp3302
g22
I45
sg30
Nsg31
Nsg32
Nsbsg33
I3
sg34
F46.5
sbs(g11
g454
tp3303
g0
(g17
g2
Ntp3304
Rp3305
(dp3306
g21
F0.5
sg22
I45
sg23
g0
(g24
g25
(dp3307
I00
I45
stp3308
Rp3309
(dp3310
g22
I45
sg30
Nsg31
Nsg32
Nsbsg33
I3
sg34
F46.5
sbs(g8
g2147
tp3311
g0
(g17
g2
Ntp3312
Rp3313
(dp3314
g21
F0.5
sg22
I45
sg23
g0
(g24
g25
(dp3315
I00
I39
sI01
I6
stp3316
Rp3317
(dp3318
g22
I45
sg30
Nsg31
Nsg32
Nsbsg33
I3
sg34
F46.5
sbs(g12
g507
tp3319
g0
(g17
g2
Ntp3320
Rp3321
(dp3322
g21
F0.5
sg22
I45
sg23
g0
(g24
g25
(dp3323
I00
I44
sI01
I1
stp3324
Rp3325
(dp3326
g22
I45
sg30
Nsg31
Nsg32
Nsbsg33
I3
sg34
F46.5
sbs(g10
S'wrd:beijing>0'
p3327
tp3328
g0
(g17
g2
Ntp3329
Rp3330
(dp3331
g21
F0.5
sg22
I45
sg23
g0
(g24
g25
(dp3332
I00
I45
stp3333
Rp3334
(dp3335
g22
I45
sg30
Nsg31
Nsg32
Nsbsg33
I3
sg34
F46.5
sbs(g8
S'skip:(the,.,be)>0'
p3336
tp3337
g0
(g17
g2
Ntp3338
Rp3339
(dp3340
g21
F0.5
sg22
I45
sg23
g0
(g24
g25
(dp3341
I00
I38
sI01
I7
stp3342
Rp3343
(dp3344
g22
I45
sg30
Nsg31
Nsg32
Nsbsg33
I3
sg34
F46.5
sbs(g12
g383
tp3345
g0
(g17
g2
Ntp3346
Rp3347
(dp3348
g21
F0.5
sg22
I45
sg23
g0
(g24
g25
(dp3349
I00
I24
sI01
I21
stp3350
Rp3351
(dp3352
g22
I45
sg30
Nsg31
Nsg32
Nsbsg33
I3
sg34
F46.5
sbs(g8
g2747
tp3353
g0
(g17
g2
Ntp3354
Rp3355
(dp3356
g21
F0.5
sg22
I45
sg23
g0
(g24
g25
(dp3357
I00
I45
stp3358
Rp3359
(dp3360
g22
I45
sg30
Nsg31
Nsg32
Nsbsg33
I3
sg34
F46.5
sbs(g12
g1843
tp3361
g0
(g17
g2
Ntp3362
Rp3363
(dp3364
g21
F0.5
sg22
I45
sg23
g0
(g24
g25
(dp3365
I00
I45
stp3366
Rp3367
(dp3368
g22
I45
sg30
Nsg31
Nsg32
Nsbsg33
I3
sg34
F46.5
sbs(g8
g392
tp3369
g0
(g17
g2
Ntp3370
Rp3371
(dp3372
g21
F0.5
sg22
I45
sg23
g0
(g24
g25
(dp3373
I00
I45
stp3374
Rp3375
(dp3376
g22
I45
sg30
Nsg31
Nsg32
Nsbsg33
I3
sg34
F46.5
sbs(g10
g2198
tp3377
g0
(g17
g2
Ntp3378
Rp3379
(dp3380
g21
F0.5
sg22
I45
sg23
g0
(g24
g25
(dp3381
I00
I45
stp3382
Rp3383
(dp3384
g22
I45
sg30
Nsg31
Nsg32
Nsbsg33
I3
sg34
F46.5
sbs(g10
g1176
tp3385
g0
(g17
g2
Ntp3386
Rp3387
(dp3388
g21
F0.5
sg22
I45
sg23
g0
(g24
g25
(dp3389
I00
I40
sI01
I5
stp3390
Rp3391
(dp3392
g22
I45
sg30
Nsg31
Nsg32
Nsbsg33
I3
sg34
F46.5
sbs(g8
g3034
tp3393
g0
(g17
g2
Ntp3394
Rp3395
(dp3396
g21
F0.5
sg22
I45
sg23
g0
(g24
g25
(dp3397
I00
I36
sI01
I9
stp3398
Rp3399
(dp3400
g22
I45
sg30
Nsg31
Nsg32
Nsbsg33
I3
sg34
F46.5
sbs(g8
g2976
tp3401
g0
(g17
g2
Ntp3402
Rp3403
(dp3404
g21
F0.5
sg22
I45
sg23
g0
(g24
g25
(dp3405
I00
I44
sI01
I1
stp3406
Rp3407
(dp3408
g22
I45
sg30
Nsg31
Nsg32
Nsbsg33
I3
sg34
F46.5
sbs(g11
g888
tp3409
g0
(g17
g2
Ntp3410
Rp3411
(dp3412
g21
F0.5
sg22
I45
sg23
g0
(g24
g25
(dp3413
I00
I34
sI01
I11
stp3414
Rp3415
(dp3416
g22
I45
sg30
Nsg31
Nsg32
Nsbsg33
I3
sg34
F46.5
sbs(g12
S'skip:($,),$)>0'
p3417
tp3418
g0
(g17
g2
Ntp3419
Rp3420
(dp3421
g21
F0.5
sg22
I45
sg23
g0
(g24
g25
(dp3422
I00
I39
sI01
I6
stp3423
Rp3424
(dp3425
g22
I45
sg30
Nsg31
Nsg32
Nsbsg33
I3
sg34
F46.5
sbs(g11
S'tri:(the,second,round)>0'
p3426
tp3427
g0
(g17
g2
Ntp3428
Rp3429
(dp3430
g21
F0.5
sg22
I45
sg23
g0
(g24
g25
(dp3431
I00
I45
stp3432
Rp3433
(dp3434
g22
I45
sg30
Nsg31
Nsg32
Nsbsg33
I3
sg34
F46.5
sbs(g9
g240
tp3435
g0
(g17
g2
Ntp3436
Rp3437
(dp3438
g21
F0.5
sg22
I45
sg23
g0
(g24
g25
(dp3439
I00
I45
stp3440
Rp3441
(dp3442
g22
I45
sg30
Nsg31
Nsg32
Nsbsg33
I3
sg34
F46.5
sbs(g8
g793
tp3443
g0
(g17
g2
Ntp3444
Rp3445
(dp3446
g21
F0.5
sg22
I45
sg23
g0
(g24
g25
(dp3447
I00
I45
stp3448
Rp3449
(dp3450
g22
I45
sg30
Nsg31
Nsg32
Nsbsg33
I3
sg34
F46.5
sbs(g9
g1254
tp3451
g0
(g17
g2
Ntp3452
Rp3453
(dp3454
g21
F0.5
sg22
I45
sg23
g0
(g24
g25
(dp3455
I00
I43
sI01
I2
stp3456
Rp3457
(dp3458
g22
I45
sg30
Nsg31
Nsg32
Nsbsg33
I3
sg34
F46.5
sbs(g11
g3327
tp3459
g0
(g17
g2
Ntp3460
Rp3461
(dp3462
g21
F0.5
sg22
I45
sg23
g0
(g24
g25
(dp3463
I00
I6
sI01
I39
stp3464
Rp3465
(dp3466
g22
I45
sg30
Nsg31
Nsg32
Nsbsg33
I3
sg34
F46.5
sbs(g8
g2198
tp3467
g0
(g17
g2
Ntp3468
Rp3469
(dp3470
g21
F0.5
sg22
I45
sg23
g0
(g24
g25
(dp3471
I00
I45
stp3472
Rp3473
(dp3474
g22
I45
sg30
Nsg31
Nsg32
Nsbsg33
I3
sg34
F46.5
sbs(g10
g71
tp3475
g0
(g17
g2
Ntp3476
Rp3477
(dp3478
g21
F0.5
sg22
I45
sg23
g0
(g24
g25
(dp3479
I00
I44
sI01
I1
stp3480
Rp3481
(dp3482
g22
I45
sg30
Nsg31
Nsg32
Nsbsg33
I3
sg34
F46.5
sbs(g8
g551
tp3483
g0
(g17
g2
Ntp3484
Rp3485
(dp3486
g21
F0.5
sg22
I45
sg23
g0
(g24
g25
(dp3487
I00
I43
sI01
I2
stp3488
Rp3489
(dp3490
g22
I45
sg30
Nsg31
Nsg32
Nsbsg33
I3
sg34
F46.5
sbs(g9
g3426
tp3491
g0
(g17
g2
Ntp3492
Rp3493
(dp3494
g21
F0.5
sg22
I45
sg23
g0
(g24
g25
(dp3495
I00
I33
sI01
I12
stp3496
Rp3497
(dp3498
g22
I45
sg30
Nsg31
Nsg32
Nsbsg33
I3
sg34
F46.5
sbs(g12
g2164
tp3499
g0
(g17
g2
Ntp3500
Rp3501
(dp3502
g21
F0.5
sg22
I45
sg23
g0
(g24
g25
(dp3503
I00
I28
sI01
I17
stp3504
Rp3505
(dp3506
g22
I45
sg30
Nsg31
Nsg32
Nsbsg33
I3
sg34
F46.5
sbs(g10
g1606
tp3507
g0
(g17
g2
Ntp3508
Rp3509
(dp3510
g21
F0.5
sg22
I45
sg23
g0
(g24
g25
(dp3511
I00
I45
stp3512
Rp3513
(dp3514
g22
I45
sg30
Nsg31
Nsg32
Nsbsg33
I3
sg34
F46.5
sbs(g8
g2910
tp3515
g0
(g17
g2
Ntp3516
Rp3517
(dp3518
g21
F0.5
sg22
I45
sg23
g0
(g24
g25
(dp3519
I00
I45
stp3520
Rp3521
(dp3522
g22
I45
sg30
Nsg31
Nsg32
Nsbsg33
I3
sg34
F46.5
sbs(g8
g15
tp3523
g0
(g17
g2
Ntp3524
Rp3525
(dp3526
g21
F0.5
sg22
I45
sg23
g0
(g24
g25
(dp3527
I00
I45
stp3528
Rp3529
(dp3530
g22
I45
sg30
Nsg31
Nsg32
Nsbsg33
I3
sg34
F46.5
sbs(g12
g2565
tp3531
g0
(g17
g2
Ntp3532
Rp3533
(dp3534
g21
F0.5
sg22
I45
sg23
g0
(g24
g25
(dp3535
I00
I45
stp3536
Rp3537
(dp3538
g22
I45
sg30
Nsg31
Nsg32
Nsbsg33
I3
sg34
F46.5
sbs(g8
g2565
tp3539
g0
(g17
g2
Ntp3540
Rp3541
(dp3542
g21
F0.5
sg22
I45
sg23
g0
(g24
g25
(dp3543
I00
I45
stp3544
Rp3545
(dp3546
g22
I45
sg30
Nsg31
Nsg32
Nsbsg33
I3
sg34
F46.5
sbs(g12
S'tri:(,,president,of)>0'
p3547
tp3548
g0
(g17
g2
Ntp3549
Rp3550
(dp3551
g21
F0.5
sg22
I45
sg23
g0
(g24
g25
(dp3552
I00
I45
stp3553
Rp3554
(dp3555
g22
I45
sg30
Nsg31
Nsg32
Nsbsg33
I3
sg34
F46.5
sbs(g12
g888
tp3556
g0
(g17
g2
Ntp3557
Rp3558
(dp3559
g21
F0.5
sg22
I45
sg23
g0
(g24
g25
(dp3560
I00
I35
sI01
I10
stp3561
Rp3562
(dp3563
g22
I45
sg30
Nsg31
Nsg32
Nsbsg33
I3
sg34
F46.5
sbs(g8
g1080
tp3564
g0
(g17
g2
Ntp3565
Rp3566
(dp3567
g21
F0.5
sg22
I45
sg23
g0
(g24
g25
(dp3568
I00
I45
stp3569
Rp3570
(dp3571
g22
I45
sg30
Nsg31
Nsg32
Nsbsg33
I3
sg34
F46.5
sbs(g11
S'skip:(,,,,,)>0'
p3572
tp3573
g0
(g17
g2
Ntp3574
Rp3575
(dp3576
g21
F0.5
sg22
I45
sg23
g0
(g24
g25
(dp3577
I00
I44
sI01
I1
stp3578
Rp3579
(dp3580
g22
I45
sg30
Nsg31
Nsg32
Nsbsg33
I3
sg34
F46.5
sbs(g12
S'skip:(.s,of,christopher)>0'
p3581
tp3582
g0
(g17
g2
Ntp3583
Rp3584
(dp3585
g21
F0.5
sg22
I45
sg23
g0
(g24
g25
(dp3586
I00
I45
stp3587
Rp3588
(dp3589
g22
I45
sg30
Nsg31
Nsg32
Nsbsg33
I3
sg34
F46.5
sbs(g12
g2299
tp3590
g0
(g17
g2
Ntp3591
Rp3592
(dp3593
g21
F0.5
sg22
I45
sg23
g0
(g24
g25
(dp3594
I00
I40
sI01
I5
stp3595
Rp3596
(dp3597
g22
I45
sg30
Nsg31
Nsg32
Nsbsg33
I3
sg34
F46.5
sbs(g8
g1589
tp3598
g0
(g17
g2
Ntp3599
Rp3600
(dp3601
g21
F0.5
sg22
I45
sg23
g0
(g24
g25
(dp3602
I00
I45
stp3603
Rp3604
(dp3605
g22
I45
sg30
Nsg31
Nsg32
Nsbsg33
I3
sg34
F46.5
sbs(g8
g1818
tp3606
g0
(g17
g2
Ntp3607
Rp3608
(dp3609
g21
F0.5
sg22
I45
sg23
g0
(g24
g25
(dp3610
I00
I39
sI01
I6
stp3611
Rp3612
(dp3613
g22
I45
sg30
Nsg31
Nsg32
Nsbsg33
I3
sg34
F46.5
sbs(g12
g107
tp3614
g0
(g17
g2
Ntp3615
Rp3616
(dp3617
g21
F0.5
sg22
I45
sg23
g0
(g24
g25
(dp3618
I00
I28
sI01
I17
stp3619
Rp3620
(dp3621
g22
I45
sg30
Nsg31
Nsg32
Nsbsg33
I3
sg34
F46.5
sbs(g9
g284
tp3622
g0
(g17
g2
Ntp3623
Rp3624
(dp3625
g21
F0.5
sg22
I45
sg23
g0
(g24
g25
(dp3626
I00
I45
stp3627
Rp3628
(dp3629
g22
I45
sg30
Nsg31
Nsg32
Nsbsg33
I3
sg34
F46.5
sbs(g12
g1451
tp3630
g0
(g17
g2
Ntp3631
Rp3632
(dp3633
g21
F0.5
sg22
I45
sg23
g0
(g24
g25
(dp3634
I00
I40
sI01
I5
stp3635
Rp3636
(dp3637
g22
I45
sg30
Nsg31
Nsg32
Nsbsg33
I3
sg34
F46.5
sbs(g9
g1495
tp3638
g0
(g17
g2
Ntp3639
Rp3640
(dp3641
g21
F0.5
sg22
I45
sg23
g0
(g24
g25
(dp3642
I00
I45
stp3643
Rp3644
(dp3645
g22
I45
sg30
Nsg31
Nsg32
Nsbsg33
I3
sg34
F46.5
sbs(g12
g1460
tp3646
g0
(g17
g2
Ntp3647
Rp3648
(dp3649
g21
F0.5
sg22
I45
sg23
g0
(g24
g25
(dp3650
I00
I45
stp3651
Rp3652
(dp3653
g22
I45
sg30
Nsg31
Nsg32
Nsbsg33
I3
sg34
F46.5
sbs(g8
g1018
tp3654
g0
(g17
g2
Ntp3655
Rp3656
(dp3657
g21
F0.5
sg22
I45
sg23
g0
(g24
g25
(dp3658
I00
I42
sI01
I3
stp3659
Rp3660
(dp3661
g22
I45
sg30
Nsg31
Nsg32
Nsbsg33
I3
sg34
F46.5
sbs(g8
g178
tp3662
g0
(g17
g2
Ntp3663
Rp3664
(dp3665
g21
F0.5
sg22
I45
sg23
g0
(g24
g25
(dp3666
I00
I45
stp3667
Rp3668
(dp3669
g22
I45
sg30
Nsg31
Nsg32
Nsbsg33
I3
sg34
F46.5
sbs(g9
g2524
tp3670
g0
(g17
g2
Ntp3671
Rp3672
(dp3673
g21
F0.5
sg22
I45
sg23
g0
(g24
g25
(dp3674
I00
I25
sI01
I20
stp3675
Rp3676
(dp3677
g22
I45
sg30
Nsg31
Nsg32
Nsbsg33
I3
sg34
F46.5
sbs(g11
g3547
tp3678
g0
(g17
g2
Ntp3679
Rp3680
(dp3681
g21
F0.5
sg22
I45
sg23
g0
(g24
g25
(dp3682
I00
I45
stp3683
Rp3684
(dp3685
g22
I45
sg30
Nsg31
Nsg32
Nsbsg33
I3
sg34
F46.5
sbs(g10
g716
tp3686
g0
(g17
g2
Ntp3687
Rp3688
(dp3689
g21
F0.5
sg22
I45
sg23
g0
(g24
g25
(dp3690
I00
I45
stp3691
Rp3692
(dp3693
g22
I45
sg30
Nsg31
Nsg32
Nsbsg33
I3
sg34
F46.5
sbs(g12
g2747
tp3694
g0
(g17
g2
Ntp3695
Rp3696
(dp3697
g21
F0.5
sg22
I45
sg23
g0
(g24
g25
(dp3698
I00
I45
stp3699
Rp3700
(dp3701
g22
I45
sg30
Nsg31
Nsg32
Nsbsg33
I3
sg34
F46.5
sbs(g8
g2138
tp3702
g0
(g17
g2
Ntp3703
Rp3704
(dp3705
g21
F0.5
sg22
I45
sg23
g0
(g24
g25
(dp3706
I00
I42
sI01
I3
stp3707
Rp3708
(dp3709
g22
I45
sg30
Nsg31
Nsg32
Nsbsg33
I3
sg34
F46.5
sbs(g10
g767
tp3710
g0
(g17
g2
Ntp3711
Rp3712
(dp3713
g21
F0.5
sg22
I45
sg23
g0
(g24
g25
(dp3714
I00
I45
stp3715
Rp3716
(dp3717
g22
I45
sg30
Nsg31
Nsg32
Nsbsg33
I3
sg34
F46.5
sbs(g12
S'tri:(in,the,world)>0'
p3718
tp3719
g0
(g17
g2
Ntp3720
Rp3721
(dp3722
g21
F0.5
sg22
I45
sg23
g0
(g24
g25
(dp3723
I00
I45
stp3724
Rp3725
(dp3726
g22
I45
sg30
Nsg31
Nsg32
Nsbsg33
I3
sg34
F46.5
sbs(g12
g1009
tp3727
g0
(g17
g2
Ntp3728
Rp3729
(dp3730
g21
F0.5
sg22
I45
sg23
g0
(g24
g25
(dp3731
I00
I45
stp3732
Rp3733
(dp3734
g22
I45
sg30
Nsg31
Nsg32
Nsbsg33
I3
sg34
F46.5
sbs(g9
g1272
tp3735
g0
(g17
g2
Ntp3736
Rp3737
(dp3738
g21
F0.5
sg22
I45
sg23
g0
(g24
g25
(dp3739
I00
I45
stp3740
Rp3741
(dp3742
g22
I45
sg30
Nsg31
Nsg32
Nsbsg33
I3
sg34
F46.5
sbs(g11
g534
tp3743
g0
(g17
g2
Ntp3744
Rp3745
(dp3746
g21
F0.5
sg22
I45
sg23
g0
(g24
g25
(dp3747
I00
I41
sI01
I4
stp3748
Rp3749
(dp3750
g22
I45
sg30
Nsg31
Nsg32
Nsbsg33
I3
sg34
F46.5
sbs(g11
g3132
tp3751
g0
(g17
g2
Ntp3752
Rp3753
(dp3754
g21
F0.5
sg22
I45
sg23
g0
(g24
g25
(dp3755
I00
I43
sI01
I2
stp3756
Rp3757
(dp3758
g22
I45
sg30
Nsg31
Nsg32
Nsbsg33
I3
sg34
F46.5
sbs(g9
g472
tp3759
g0
(g17
g2
Ntp3760
Rp3761
(dp3762
g21
F0.5
sg22
I45
sg23
g0
(g24
g25
(dp3763
I00
I22
sI01
I23
stp3764
Rp3765
(dp3766
g22
I45
sg30
Nsg31
Nsg32
Nsbsg33
I3
sg34
F46.5
sbs(g8
g1000
tp3767
g0
(g17
g2
Ntp3768
Rp3769
(dp3770
g21
F0.5
sg22
I45
sg23
g0
(g24
g25
(dp3771
I00
I39
sI01
I6
stp3772
Rp3773
(dp3774
g22
I45
sg30
Nsg31
Nsg32
Nsbsg33
I3
sg34
F46.5
sbs(g11
g1451
tp3775
g0
(g17
g2
Ntp3776
Rp3777
(dp3778
g21
F0.5
sg22
I45
sg23
g0
(g24
g25
(dp3779
I00
I44
sI01
I1
stp3780
Rp3781
(dp3782
g22
I45
sg30
Nsg31
Nsg32
Nsbsg33
I3
sg34
F46.5
sbs(g12
S'wrd:market>0'
p3783
tp3784
g0
(g17
g2
Ntp3785
Rp3786
(dp3787
g21
F0.5
sg22
I45
sg23
g0
(g24
g25
(dp3788
I00
I24
sI01
I21
stp3789
Rp3790
(dp3791
g22
I45
sg30
Nsg31
Nsg32
Nsbsg33
I3
sg34
F46.5
sbs(g11
g1027
tp3792
g0
(g17
g2
Ntp3793
Rp3794
(dp3795
g21
F0.5
sg22
I45
sg23
g0
(g24
g25
(dp3796
I00
I36
sI01
I9
stp3797
Rp3798
(dp3799
g22
I45
sg30
Nsg31
Nsg32
Nsbsg33
I3
sg34
F46.5
sbs(g11
g2599
tp3800
g0
(g17
g2
Ntp3801
Rp3802
(dp3803
g21
F0.5
sg22
I45
sg23
g0
(g24
g25
(dp3804
I00
I42
sI01
I3
stp3805
Rp3806
(dp3807
g22
I45
sg30
Nsg31
Nsg32
Nsbsg33
I3
sg34
F46.5
sbs(g8
g134
tp3808
g0
(g17
g2
Ntp3809
Rp3810
(dp3811
g21
F0.5
sg22
I45
sg23
g0
(g24
g25
(dp3812
I00
I45
stp3813
Rp3814
(dp3815
g22
I45
sg30
Nsg31
Nsg32
Nsbsg33
I3
sg34
F46.5
sbs(g10
S'skip:(be,the,the)>0'
p3816
tp3817
g0
(g17
g2
Ntp3818
Rp3819
(dp3820
g21
F0.5
sg22
I45
sg23
g0
(g24
g25
(dp3821
I00
I36
sI01
I9
stp3822
Rp3823
(dp3824
g22
I45
sg30
Nsg31
Nsg32
Nsbsg33
I3
sg34
F46.5
sbs(g8
g2625
tp3825
g0
(g17
g2
Ntp3826
Rp3827
(dp3828
g21
F0.5
sg22
I45
sg23
g0
(g24
g25
(dp3829
I00
I45
stp3830
Rp3831
(dp3832
g22
I45
sg30
Nsg31
Nsg32
Nsbsg33
I3
sg34
F46.5
sbs(g12
g1640
tp3833
g0
(g17
g2
Ntp3834
Rp3835
(dp3836
g21
F0.5
sg22
I45
sg23
g0
(g24
g25
(dp3837
I00
I38
sI01
I7
stp3838
Rp3839
(dp3840
g22
I45
sg30
Nsg31
Nsg32
Nsbsg33
I3
sg34
F46.5
sbs(g10
g1357
tp3841
g0
(g17
g2
Ntp3842
Rp3843
(dp3844
g21
F0.5
sg22
I45
sg23
g0
(g24
g25
(dp3845
I00
I37
sI01
I8
stp3846
Rp3847
(dp3848
g22
I45
sg30
Nsg31
Nsg32
Nsbsg33
I3
sg34
F46.5
sbs(g9
S'bi:(by,the)>0'
p3849
tp3850
g0
(g17
g2
Ntp3851
Rp3852
(dp3853
g21
F0.5
sg22
I45
sg23
g0
(g24
g25
(dp3854
I00
I26
sI01
I19
stp3855
Rp3856
(dp3857
g22
I45
sg30
Nsg31
Nsg32
Nsbsg33
I3
sg34
F46.5
sbs(g9
g1691
tp3858
g0
(g17
g2
Ntp3859
Rp3860
(dp3861
g21
F0.5
sg22
I45
sg23
g0
(g24
g25
(dp3862
I00
I45
stp3863
Rp3864
(dp3865
g22
I45
sg30
Nsg31
Nsg32
Nsbsg33
I3
sg34
F46.5
sbs(g8
S'skip:(a,million,$)>0'
p3866
tp3867
g0
(g17
g2
Ntp3868
Rp3869
(dp3870
g21
F0.5
sg22
I45
sg23
g0
(g24
g25
(dp3871
I00
I45
stp3872
Rp3873
(dp3874
g22
I45
sg30
Nsg31
Nsg32
Nsbsg33
I3
sg34
F46.5
sbs(g8
g2349
tp3875
g0
(g17
g2
Ntp3876
Rp3877
(dp3878
g21
F0.5
sg22
I45
sg23
g0
(g24
g25
(dp3879
I00
I45
stp3880
Rp3881
(dp3882
g22
I45
sg30
Nsg31
Nsg32
Nsbsg33
I3
sg34
F46.5
sbs(g8
g1053
tp3883
g0
(g17
g2
Ntp3884
Rp3885
(dp3886
g21
F0.5
sg22
I45
sg23
g0
(g24
g25
(dp3887
I00
I45
stp3888
Rp3889
(dp3890
g22
I45
sg30
Nsg31
Nsg32
Nsbsg33
I3
sg34
F46.5
sbs(g11
g1106
tp3891
g0
(g17
g2
Ntp3892
Rp3893
(dp3894
g21
F0.5
sg22
I45
sg23
g0
(g24
g25
(dp3895
I00
I45
stp3896
Rp3897
(dp3898
g22
I45
sg30
Nsg31
Nsg32
Nsbsg33
I3
sg34
F46.5
sbs(g10
g445
tp3899
g0
(g17
g2
Ntp3900
Rp3901
(dp3902
g21
F0.5
sg22
I45
sg23
g0
(g24
g25
(dp3903
I00
I45
stp3904
Rp3905
(dp3906
g22
I45
sg30
Nsg31
Nsg32
Nsbsg33
I3
sg34
F46.5
sbs(g11
g311
tp3907
g0
(g17
g2
Ntp3908
Rp3909
(dp3910
g21
F0.5
sg22
I45
sg23
g0
(g24
g25
(dp3911
I00
I13
sI01
I32
stp3912
Rp3913
(dp3914
g22
I45
sg30
Nsg31
Nsg32
Nsbsg33
I3
sg34
F46.5
sbs(g8
g53
tp3915
g0
(g17
g2
Ntp3916
Rp3917
(dp3918
g21
F0.5
sg22
I45
sg23
g0
(g24
g25
(dp3919
I00
I4
sI01
I41
stp3920
Rp3921
(dp3922
g22
I45
sg30
Nsg31
Nsg32
Nsbsg33
I3
sg34
F46.5
sbs(g10
g1150
tp3923
g0
(g17
g2
Ntp3924
Rp3925
(dp3926
g21
F0.5
sg22
I45
sg23
g0
(g24
g25
(dp3927
I00
I45
stp3928
Rp3929
(dp3930
g22
I45
sg30
Nsg31
Nsg32
Nsbsg33
I3
sg34
F46.5
sbs(g9
g213
tp3931
g0
(g17
g2
Ntp3932
Rp3933
(dp3934
g21
F0.5
sg22
I45
sg23
g0
(g24
g25
(dp3935
I00
I45
stp3936
Rp3937
(dp3938
g22
I45
sg30
Nsg31
Nsg32
Nsbsg33
I3
sg34
F46.5
sbs(g11
g3783
tp3939
g0
(g17
g2
Ntp3940
Rp3941
(dp3942
g21
F0.5
sg22
I45
sg23
g0
(g24
g25
(dp3943
I00
I41
sI01
I4
stp3944
Rp3945
(dp3946
g22
I45
sg30
Nsg31
Nsg32
Nsbsg33
I3
sg34
F46.5
sbs(g10
g560
tp3947
g0
(g17
g2
Ntp3948
Rp3949
(dp3950
g21
F0.5
sg22
I45
sg23
g0
(g24
g25
(dp3951
I00
I25
sI01
I20
stp3952
Rp3953
(dp3954
g22
I45
sg30
Nsg31
Nsg32
Nsbsg33
I3
sg34
F46.5
sbs(g10
g699
tp3955
g0
(g17
g2
Ntp3956
Rp3957
(dp3958
g21
F0.5
sg22
I45
sg23
g0
(g24
g25
(dp3959
I00
I44
sI01
I1
stp3960
Rp3961
(dp3962
g22
I45
sg30
Nsg31
Nsg32
Nsbsg33
I3
sg34
F46.5
sbs(g10
g836
tp3963
g0
(g17
g2
Ntp3964
Rp3965
(dp3966
g21
F0.5
sg22
I45
sg23
g0
(g24
g25
(dp3967
I00
I36
sI01
I9
stp3968
Rp3969
(dp3970
g22
I45
sg30
Nsg31
Nsg32
Nsbsg33
I3
sg34
F46.5
sbs(g11
g1194
tp3971
g0
(g17
g2
Ntp3972
Rp3973
(dp3974
g21
F0.5
sg22
I45
sg23
g0
(g24
g25
(dp3975
I00
I34
sI01
I11
stp3976
Rp3977
(dp3978
g22
I45
sg30
Nsg31
Nsg32
Nsbsg33
I3
sg34
F46.5
sbs(g11
g356
tp3979
g0
(g17
g2
Ntp3980
Rp3981
(dp3982
g21
F0.5
sg22
I45
sg23
g0
(g24
g25
(dp3983
I00
I2
sI01
I43
stp3984
Rp3985
(dp3986
g22
I45
sg30
Nsg31
Nsg32
Nsbsg33
I3
sg34
F46.5
sbs(g12
g1724
tp3987
g0
(g17
g2
Ntp3988
Rp3989
(dp3990
g21
F0.5
sg22
I45
sg23
g0
(g24
g25
(dp3991
I00
I45
stp3992
Rp3993
(dp3994
g22
I45
sg30
Nsg31
Nsg32
Nsbsg33
I3
sg34
F46.5
sbs(g9
g1141
tp3995
g0
(g17
g2
Ntp3996
Rp3997
(dp3998
g21
F0.5
sg22
I45
sg23
g0
(g24
g25
(dp3999
I00
I8
sI01
I37
stp4000
Rp4001
(dp4002
g22
I45
sg30
Nsg31
Nsg32
Nsbsg33
I3
sg34
F46.5
sbs(g8
S'skip:(the,of,,)>0'
p4003
tp4004
g0
(g17
g2
Ntp4005
Rp4006
(dp4007
g21
F0.5
sg22
I45
sg23
g0
(g24
g25
(dp4008
I00
I39
sI01
I6
stp4009
Rp4010
(dp4011
g22
I45
sg30
Nsg31
Nsg32
Nsbsg33
I3
sg34
F46.5
sbs(g8
g338
tp4012
g0
(g17
g2
Ntp4013
Rp4014
(dp4015
g21
F0.5
sg22
I45
sg23
g0
(g24
g25
(dp4016
I00
I45
stp4017
Rp4018
(dp4019
g22
I45
sg30
Nsg31
Nsg32
Nsbsg33
I3
sg34
F46.5
sbs(g11
g1555
tp4020
g0
(g17
g2
Ntp4021
Rp4022
(dp4023
g21
F0.5
sg22
I45
sg23
g0
(g24
g25
(dp4024
I00
I44
sI01
I1
stp4025
Rp4026
(dp4027
g22
I45
sg30
Nsg31
Nsg32
Nsbsg33
I3
sg34
F46.5
sbs(g12
S'bi:(that,the)>0'
p4028
tp4029
g0
(g17
g2
Ntp4030
Rp4031
(dp4032
g21
F0.5
sg22
I45
sg23
g0
(g24
g25
(dp4033
I00
I30
sI01
I15
stp4034
Rp4035
(dp4036
g22
I45
sg30
Nsg31
Nsg32
Nsbsg33
I3
sg34
F46.5
sbs(g11
g594
tp4037
g0
(g17
g2
Ntp4038
Rp4039
(dp4040
g21
F0.5
sg22
I45
sg23
g0
(g24
g25
(dp4041
I00
I45
stp4042
Rp4043
(dp4044
g22
I45
sg30
Nsg31
Nsg32
Nsbsg33
I3
sg34
F46.5
sbs(g8
g655
tp4045
g0
(g17
g2
Ntp4046
Rp4047
(dp4048
g21
F0.5
sg22
I45
sg23
g0
(g24
g25
(dp4049
I00
I45
stp4050
Rp4051
(dp4052
g22
I45
sg30
Nsg31
Nsg32
Nsbsg33
I3
sg34
F46.5
sbs(g8
g525
tp4053
g0
(g17
g2
Ntp4054
Rp4055
(dp4056
g21
F0.5
sg22
I45
sg23
g0
(g24
g25
(dp4057
I00
I43
sI01
I2
stp4058
Rp4059
(dp4060
g22
I45
sg30
Nsg31
Nsg32
Nsbsg33
I3
sg34
F46.5
sbs(g9
g3718
tp4061
g0
(g17
g2
Ntp4062
Rp4063
(dp4064
g21
F0.5
sg22
I45
sg23
g0
(g24
g25
(dp4065
I00
I37
sI01
I8
stp4066
Rp4067
(dp4068
g22
I45
sg30
Nsg31
Nsg32
Nsbsg33
I3
sg34
F46.5
sbs(g8
g347
tp4069
g0
(g17
g2
Ntp4070
Rp4071
(dp4072
g21
F0.5
sg22
I45
sg23
g0
(g24
g25
(dp4073
I00
I40
sI01
I5
stp4074
Rp4075
(dp4076
g22
I45
sg30
Nsg31
Nsg32
Nsbsg33
I3
sg34
F46.5
sbs(g12
g409
tp4077
g0
(g17
g2
Ntp4078
Rp4079
(dp4080
g21
F0.5
sg22
I45
sg23
g0
(g24
g25
(dp4081
I00
I30
sI01
I15
stp4082
Rp4083
(dp4084
g22
I45
sg30
Nsg31
Nsg32
Nsbsg33
I3
sg34
F46.5
sbs(g11
g1767
tp4085
g0
(g17
g2
Ntp4086
Rp4087
(dp4088
g21
F0.5
sg22
I45
sg23
g0
(g24
g25
(dp4089
I00
I26
sI01
I19
stp4090
Rp4091
(dp4092
g22
I45
sg30
Nsg31
Nsg32
Nsbsg33
I3
sg34
F46.5
sbs(g11
g1097
tp4093
g0
(g17
g2
Ntp4094
Rp4095
(dp4096
g21
F0.5
sg22
I45
sg23
g0
(g24
g25
(dp4097
I00
I39
sI01
I6
stp4098
Rp4099
(dp4100
g22
I45
sg30
Nsg31
Nsg32
Nsbsg33
I3
sg34
F46.5
sbs(g10
g463
tp4101
g0
(g17
g2
Ntp4102
Rp4103
(dp4104
g21
F0.5
sg22
I45
sg23
g0
(g24
g25
(dp4105
I00
I45
stp4106
Rp4107
(dp4108
g22
I45
sg30
Nsg31
Nsg32
Nsbsg33
I3
sg34
F46.5
sbs(g10
g1460
tp4109
g0
(g17
g2
Ntp4110
Rp4111
(dp4112
g21
F0.5
sg22
I45
sg23
g0
(g24
g25
(dp4113
I00
I40
sI01
I5
stp4114
Rp4115
(dp4116
g22
I45
sg30
Nsg31
Nsg32
Nsbsg33
I3
sg34
F46.5
sbs(g12
g2829
tp4117
g0
(g17
g2
Ntp4118
Rp4119
(dp4120
g21
F0.5
sg22
I45
sg23
g0
(g24
g25
(dp4121
I00
I36
sI01
I9
stp4122
Rp4123
(dp4124
g22
I45
sg30
Nsg31
Nsg32
Nsbsg33
I3
sg34
F46.5
sbs(g12
g2574
tp4125
g0
(g17
g2
Ntp4126
Rp4127
(dp4128
g21
F0.5
sg22
I45
sg23
g0
(g24
g25
(dp4129
I00
I19
sI01
I26
stp4130
Rp4131
(dp4132
g22
I45
sg30
Nsg31
Nsg32
Nsbsg33
I3
sg34
F46.5
sbs(g9
g905
tp4133
g0
(g17
g2
Ntp4134
Rp4135
(dp4136
g21
F0.5
sg22
I45
sg23
g0
(g24
g25
(dp4137
I00
I45
stp4138
Rp4139
(dp4140
g22
I45
sg30
Nsg31
Nsg32
Nsbsg33
I3
sg34
F46.5
sbs(g9
g733
tp4141
g0
(g17
g2
Ntp4142
Rp4143
(dp4144
g21
F0.5
sg22
I45
sg23
g0
(g24
g25
(dp4145
I00
I45
stp4146
Rp4147
(dp4148
g22
I45
sg30
Nsg31
Nsg32
Nsbsg33
I3
sg34
F46.5
sbs(g8
g2282
tp4149
g0
(g17
g2
Ntp4150
Rp4151
(dp4152
g21
F0.5
sg22
I45
sg23
g0
(g24
g25
(dp4153
I00
I37
sI01
I8
stp4154
Rp4155
(dp4156
g22
I45
sg30
Nsg31
Nsg32
Nsbsg33
I3
sg34
F46.5
sbs(g11
g338
tp4157
g0
(g17
g2
Ntp4158
Rp4159
(dp4160
g21
F0.5
sg22
I45
sg23
g0
(g24
g25
(dp4161
I00
I45
stp4162
Rp4163
(dp4164
g22
I45
sg30
Nsg31
Nsg32
Nsbsg33
I3
sg34
F46.5
sbs(g12
g1263
tp4165
g0
(g17
g2
Ntp4166
Rp4167
(dp4168
g21
F0.5
sg22
I45
sg23
g0
(g24
g25
(dp4169
I00
I28
sI01
I17
stp4170
Rp4171
(dp4172
g22
I45
sg30
Nsg31
Nsg32
Nsbsg33
I3
sg34
F46.5
sbs(g12
g1211
tp4173
g0
(g17
g2
Ntp4174
Rp4175
(dp4176
g21
F0.5
sg22
I45
sg23
g0
(g24
g25
(dp4177
I00
I28
sI01
I17
stp4178
Rp4179
(dp4180
g22
I45
sg30
Nsg31
Nsg32
Nsbsg33
I3
sg34
F46.5
sbs(g10
g905
tp4181
g0
(g17
g2
Ntp4182
Rp4183
(dp4184
g21
F0.5
sg22
I45
sg23
g0
(g24
g25
(dp4185
I00
I36
sI01
I9
stp4186
Rp4187
(dp4188
g22
I45
sg30
Nsg31
Nsg32
Nsbsg33
I3
sg34
F46.5
sbs(g9
g577
tp4189
g0
(g17
g2
Ntp4190
Rp4191
(dp4192
g21
F0.5
sg22
I45
sg23
g0
(g24
g25
(dp4193
I00
I45
stp4194
Rp4195
(dp4196
g22
I45
sg30
Nsg31
Nsg32
Nsbsg33
I3
sg34
F46.5
sbs(g8
g3581
tp4197
g0
(g17
g2
Ntp4198
Rp4199
(dp4200
g21
F0.5
sg22
I45
sg23
g0
(g24
g25
(dp4201
I00
I45
stp4202
Rp4203
(dp4204
g22
I45
sg30
Nsg31
Nsg32
Nsbsg33
I3
sg34
F46.5
sbs(g8
g2265
tp4205
g0
(g17
g2
Ntp4206
Rp4207
(dp4208
g21
F0.5
sg22
I45
sg23
g0
(g24
g25
(dp4209
I00
I45
stp4210
Rp4211
(dp4212
g22
I45
sg30
Nsg31
Nsg32
Nsbsg33
I3
sg34
F46.5
sbs(g9
g1417
tp4213
g0
(g17
g2
Ntp4214
Rp4215
(dp4216
g21
F0.5
sg22
I45
sg23
g0
(g24
g25
(dp4217
I00
I45
stp4218
Rp4219
(dp4220
g22
I45
sg30
Nsg31
Nsg32
Nsbsg33
I3
sg34
F46.5
sbs(g10
g2574
tp4221
g0
(g17
g2
Ntp4222
Rp4223
(dp4224
g21
F0.5
sg22
I45
sg23
g0
(g24
g25
(dp4225
I00
I14
sI01
I31
stp4226
Rp4227
(dp4228
g22
I45
sg30
Nsg31
Nsg32
Nsbsg33
I3
sg34
F46.5
sbs(g8
S'skip:(for,to,,)>0'
p4229
tp4230
g0
(g17
g2
Ntp4231
Rp4232
(dp4233
g21
F0.5
sg22
I45
sg23
g0
(g24
g25
(dp4234
I00
I45
stp4235
Rp4236
(dp4237
g22
I45
sg30
Nsg31
Nsg32
Nsbsg33
I3
sg34
F46.5
sbs(g12
g3849
tp4238
g0
(g17
g2
Ntp4239
Rp4240
(dp4241
g21
F0.5
sg22
I45
sg23
g0
(g24
g25
(dp4242
I00
I34
sI01
I11
stp4243
Rp4244
(dp4245
g22
I45
sg30
Nsg31
Nsg32
Nsbsg33
I3
sg34
F46.5
sbs(g10
g187
tp4246
g0
(g17
g2
Ntp4247
Rp4248
(dp4249
g21
F0.5
sg22
I45
sg23
g0
(g24
g25
(dp4250
I00
I40
sI01
I5
stp4251
Rp4252
(dp4253
g22
I45
sg30
Nsg31
Nsg32
Nsbsg33
I3
sg34
F46.5
sbs(g8
g3572
tp4254
g0
(g17
g2
Ntp4255
Rp4256
(dp4257
g21
F0.5
sg22
I45
sg23
g0
(g24
g25
(dp4258
I00
I39
sI01
I6
stp4259
Rp4260
(dp4261
g22
I45
sg30
Nsg31
Nsg32
Nsbsg33
I3
sg34
F46.5
sbs(g8
g2299
tp4262
g0
(g17
g2
Ntp4263
Rp4264
(dp4265
g21
F0.5
sg22
I45
sg23
g0
(g24
g25
(dp4266
I00
I35
sI01
I10
stp4267
Rp4268
(dp4269
g22
I45
sg30
Nsg31
Nsg32
Nsbsg33
I3
sg34
F46.5
sbs(g12
g98
tp4270
g0
(g17
g2
Ntp4271
Rp4272
(dp4273
g21
F0.5
sg22
I45
sg23
g0
(g24
g25
(dp4274
I00
I24
sI01
I21
stp4275
Rp4276
(dp4277
g22
I45
sg30
Nsg31
Nsg32
Nsbsg33
I3
sg34
F46.5
sbs(g8
g603
tp4278
g0
(g17
g2
Ntp4279
Rp4280
(dp4281
g21
F0.5
sg22
I45
sg23
g0
(g24
g25
(dp4282
I00
I41
sI01
I4
stp4283
Rp4284
(dp4285
g22
I45
sg30
Nsg31
Nsg32
Nsbsg33
I3
sg34
F46.5
sbs(g11
g213
tp4286
g0
(g17
g2
Ntp4287
Rp4288
(dp4289
g21
F0.5
sg22
I45
sg23
g0
(g24
g25
(dp4290
I00
I44
sI01
I1
stp4291
Rp4292
(dp4293
g22
I45
sg30
Nsg31
Nsg32
Nsbsg33
I3
sg34
F46.5
sbs(g12
g2256
tp4294
g0
(g17
g2
Ntp4295
Rp4296
(dp4297
g21
F0.5
sg22
I45
sg23
g0
(g24
g25
(dp4298
I00
I45
stp4299
Rp4300
(dp4301
g22
I45
sg30
Nsg31
Nsg32
Nsbsg33
I3
sg34
F46.5
sbs(g10
g4028
tp4302
g0
(g17
g2
Ntp4303
Rp4304
(dp4305
g21
F0.5
sg22
I45
sg23
g0
(g24
g25
(dp4306
I00
I30
sI01
I15
stp4307
Rp4308
(dp4309
g22
I45
sg30
Nsg31
Nsg32
Nsbsg33
I3
sg34
F46.5
sbs(g11
g2820
tp4310
g0
(g17
g2
Ntp4311
Rp4312
(dp4313
g21
F0.5
sg22
I45
sg23
g0
(g24
g25
(dp4314
I00
I45
stp4315
Rp4316
(dp4317
g22
I45
sg30
Nsg31
Nsg32
Nsbsg33
I3
sg34
F46.5
sbs(g12
g1442
tp4318
g0
(g17
g2
Ntp4319
Rp4320
(dp4321
g21
F0.5
sg22
I45
sg23
g0
(g24
g25
(dp4322
I00
I39
sI01
I6
stp4323
Rp4324
(dp4325
g22
I45
sg30
Nsg31
Nsg32
Nsbsg33
I3
sg34
F46.5
sbs(g10
g1750
tp4326
g0
(g17
g2
Ntp4327
Rp4328
(dp4329
g21
F0.5
sg22
I45
sg23
g0
(g24
g25
(dp4330
I00
I5
sI01
I40
stp4331
Rp4332
(dp4333
g22
I45
sg30
Nsg31
Nsg32
Nsbsg33
I3
sg34
F46.5
sbs(g8
g1357
tp4334
g0
(g17
g2
Ntp4335
Rp4336
(dp4337
g21
F0.5
sg22
I45
sg23
g0
(g24
g25
(dp4338
I00
I44
sI01
I1
stp4339
Rp4340
(dp4341
g22
I45
sg30
Nsg31
Nsg32
Nsbsg33
I3
sg34
F46.5
sbs(g10
g673
tp4342
g0
(g17
g2
Ntp4343
Rp4344
(dp4345
g21
F0.5
sg22
I45
sg23
g0
(g24
g25
(dp4346
I00
I4
sI01
I41
stp4347
Rp4348
(dp4349
g22
I45
sg30
Nsg31
Nsg32
Nsbsg33
I3
sg34
F46.5
sbs(g11
g2474
tp4350
g0
(g17
g2
Ntp4351
Rp4352
(dp4353
g21
F0.5
sg22
I45
sg23
g0
(g24
g25
(dp4354
I00
I25
sI01
I20
stp4355
Rp4356
(dp4357
g22
I45
sg30
Nsg31
Nsg32
Nsbsg33
I3
sg34
F46.5
sbs(g12
g2976
tp4358
g0
(g17
g2
Ntp4359
Rp4360
(dp4361
g21
F0.5
sg22
I45
sg23
g0
(g24
g25
(dp4362
I00
I44
sI01
I1
stp4363
Rp4364
(dp4365
g22
I45
sg30
Nsg31
Nsg32
Nsbsg33
I3
sg34
F46.5
sbs(g11
g53
tp4366
g0
(g17
g2
Ntp4367
Rp4368
(dp4369
g21
F0.5
sg22
I45
sg23
g0
(g24
g25
(dp4370
I00
I2
sI01
I43
stp4371
Rp4372
(dp4373
g22
I45
sg30
Nsg31
Nsg32
Nsbsg33
I3
sg34
F46.5
sbs(g9
g1159
tp4374
g0
(g17
g2
Ntp4375
Rp4376
(dp4377
g21
F0.5
sg22
I45
sg23
g0
(g24
g25
(dp4378
I00
I40
sI01
I5
stp4379
Rp4380
(dp4381
g22
I45
sg30
Nsg31
Nsg32
Nsbsg33
I3
sg34
F46.5
sbs(g12
g2129
tp4382
g0
(g17
g2
Ntp4383
Rp4384
(dp4385
g21
F0.5
sg22
I45
sg23
g0
(g24
g25
(dp4386
I00
I45
stp4387
Rp4388
(dp4389
g22
I45
sg30
Nsg31
Nsg32
Nsbsg33
I3
sg34
F46.5
sbs(g8
g2927
tp4390
g0
(g17
g2
Ntp4391
Rp4392
(dp4393
g21
F0.5
sg22
I45
sg23
g0
(g24
g25
(dp4394
I00
I34
sI01
I11
stp4395
Rp4396
(dp4397
g22
I45
sg30
Nsg31
Nsg32
Nsbsg33
I3
sg34
F46.5
sbs(g12
g1254
tp4398
g0
(g17
g2
Ntp4399
Rp4400
(dp4401
g21
F0.5
sg22
I45
sg23
g0
(g24
g25
(dp4402
I00
I45
stp4403
Rp4404
(dp4405
g22
I45
sg30
Nsg31
Nsg32
Nsbsg33
I3
sg34
F46.5
sbs(g9
g2138
tp4406
g0
(g17
g2
Ntp4407
Rp4408
(dp4409
g21
F0.5
sg22
I45
sg23
g0
(g24
g25
(dp4410
I00
I33
sI01
I12
stp4411
Rp4412
(dp4413
g22
I45
sg30
Nsg31
Nsg32
Nsbsg33
I3
sg34
F46.5
sbs(g12
g699
tp4414
g0
(g17
g2
Ntp4415
Rp4416
(dp4417
g21
F0.5
sg22
I45
sg23
g0
(g24
g25
(dp4418
I00
I45
stp4419
Rp4420
(dp4421
g22
I45
sg30
Nsg31
Nsg32
Nsbsg33
I3
sg34
F46.5
sbs(g12
g1027
tp4422
g0
(g17
g2
Ntp4423
Rp4424
(dp4425
g21
F0.5
sg22
I45
sg23
g0
(g24
g25
(dp4426
I00
I43
sI01
I2
stp4427
Rp4428
(dp4429
g22
I45
sg30
Nsg31
Nsg32
Nsbsg33
I3
sg34
F46.5
sbs(g12
g454
tp4430
g0
(g17
g2
Ntp4431
Rp4432
(dp4433
g21
F0.5
sg22
I45
sg23
g0
(g24
g25
(dp4434
I00
I45
stp4435
Rp4436
(dp4437
g22
I45
sg30
Nsg31
Nsg32
Nsbsg33
I3
sg34
F46.5
sbs(g11
g1606
tp4438
g0
(g17
g2
Ntp4439
Rp4440
(dp4441
g21
F0.5
sg22
I45
sg23
g0
(g24
g25
(dp4442
I00
I45
stp4443
Rp4444
(dp4445
g22
I45
sg30
Nsg31
Nsg32
Nsbsg33
I3
sg34
F46.5
sbs(g9
g1546
tp4446
g0
(g17
g2
Ntp4447
Rp4448
(dp4449
g21
F0.5
sg22
I45
sg23
g0
(g24
g25
(dp4450
I00
I17
sI01
I28
stp4451
Rp4452
(dp4453
g22
I45
sg30
Nsg31
Nsg32
Nsbsg33
I3
sg34
F46.5
sbs(g10
g1417
tp4454
g0
(g17
g2
Ntp4455
Rp4456
(dp4457
g21
F0.5
sg22
I45
sg23
g0
(g24
g25
(dp4458
I00
I44
sI01
I1
stp4459
Rp4460
(dp4461
g22
I45
sg30
Nsg31
Nsg32
Nsbsg33
I3
sg34
F46.5
sbs(g8
S"skip:(of,'',.)>0"
p4462
tp4463
g0
(g17
g2
Ntp4464
Rp4465
(dp4466
g21
F0.5
sg22
I45
sg23
g0
(g24
g25
(dp4467
I00
I41
sI01
I4
stp4468
Rp4469
(dp4470
g22
I45
sg30
Nsg31
Nsg32
Nsbsg33
I3
sg34
F46.5
sbs(g9
g2299
tp4471
g0
(g17
g2
Ntp4472
Rp4473
(dp4474
g21
F0.5
sg22
I45
sg23
g0
(g24
g25
(dp4475
I00
I32
sI01
I13
stp4476
Rp4477
(dp4478
g22
I45
sg30
Nsg31
Nsg32
Nsbsg33
I3
sg34
F46.5
sbs(g8
g673
tp4479
g0
(g17
g2
Ntp4480
Rp4481
(dp4482
g21
F0.5
sg22
I45
sg23
g0
(g24
g25
(dp4483
I00
I10
sI01
I35
stp4484
Rp4485
(dp4486
g22
I45
sg30
Nsg31
Nsg32
Nsbsg33
I3
sg34
F46.5
sbs(g10
g2138
tp4487
g0
(g17
g2
Ntp4488
Rp4489
(dp4490
g21
F0.5
sg22
I45
sg23
g0
(g24
g25
(dp4491
I00
I45
stp4492
Rp4493
(dp4494
g22
I45
sg30
Nsg31
Nsg32
Nsbsg33
I3
sg34
F46.5
sbs(g9
g1053
tp4495
g0
(g17
g2
Ntp4496
Rp4497
(dp4498
g21
F0.5
sg22
I45
sg23
g0
(g24
g25
(dp4499
I00
I45
stp4500
Rp4501
(dp4502
g22
I45
sg30
Nsg31
Nsg32
Nsbsg33
I3
sg34
F46.5
sbs(g11
g905
tp4503
g0
(g17
g2
Ntp4504
Rp4505
(dp4506
g21
F0.5
sg22
I45
sg23
g0
(g24
g25
(dp4507
I00
I40
sI01
I5
stp4508
Rp4509
(dp4510
g22
I45
sg30
Nsg31
Nsg32
Nsbsg33
I3
sg34
F46.5
sbs(g8
g947
tp4511
g0
(g17
g2
Ntp4512
Rp4513
(dp4514
g21
F0.5
sg22
I45
sg23
g0
(g24
g25
(dp4515
I00
I26
sI01
I19
stp4516
Rp4517
(dp4518
g22
I45
sg30
Nsg31
Nsg32
Nsbsg33
I3
sg34
F46.5
sbs(g12
g2104
tp4519
g0
(g17
g2
Ntp4520
Rp4521
(dp4522
g21
F0.5
sg22
I45
sg23
g0
(g24
g25
(dp4523
I00
I45
stp4524
Rp4525
(dp4526
g22
I45
sg30
Nsg31
Nsg32
Nsbsg33
I3
sg34
F46.5
sbs(g12
g3157
tp4527
g0
(g17
g2
Ntp4528
Rp4529
(dp4530
g21
F0.5
sg22
I45
sg23
g0
(g24
g25
(dp4531
I00
I45
stp4532
Rp4533
(dp4534
g22
I45
sg30
Nsg31
Nsg32
Nsbsg33
I3
sg34
F46.5
sbs(g12
g3866
tp4535
g0
(g17
g2
Ntp4536
Rp4537
(dp4538
g21
F0.5
sg22
I45
sg23
g0
(g24
g25
(dp4539
I00
I30
sI01
I15
stp4540
Rp4541
(dp4542
g22
I45
sg30
Nsg31
Nsg32
Nsbsg33
I3
sg34
F46.5
sbs(g9
g3816
tp4543
g0
(g17
g2
Ntp4544
Rp4545
(dp4546
g21
F0.5
sg22
I45
sg23
g0
(g24
g25
(dp4547
I00
I42
sI01
I3
stp4548
Rp4549
(dp4550
g22
I45
sg30
Nsg31
Nsg32
Nsbsg33
I3
sg34
F46.5
sbs(g11
g152
tp4551
g0
(g17
g2
Ntp4552
Rp4553
(dp4554
g21
F0.5
sg22
I45
sg23
g0
(g24
g25
(dp4555
I00
I39
sI01
I6
stp4556
Rp4557
(dp4558
g22
I45
sg30
Nsg31
Nsg32
Nsbsg33
I3
sg34
F46.5
sbs(g9
g3581
tp4559
g0
(g17
g2
Ntp4560
Rp4561
(dp4562
g21
F0.5
sg22
I45
sg23
g0
(g24
g25
(dp4563
I00
I45
stp4564
Rp4565
(dp4566
g22
I45
sg30
Nsg31
Nsg32
Nsbsg33
I3
sg34
F46.5
sbs(g9
g888
tp4567
g0
(g17
g2
Ntp4568
Rp4569
(dp4570
g21
F0.5
sg22
I45
sg23
g0
(g24
g25
(dp4571
I00
I20
sI01
I25
stp4572
Rp4573
(dp4574
g22
I45
sg30
Nsg31
Nsg32
Nsbsg33
I3
sg34
F46.5
sbs(g10
g1767
tp4575
g0
(g17
g2
Ntp4576
Rp4577
(dp4578
g21
F0.5
sg22
I45
sg23
g0
(g24
g25
(dp4579
I00
I10
sI01
I35
stp4580
Rp4581
(dp4582
g22
I45
sg30
Nsg31
Nsg32
Nsbsg33
I3
sg34
F46.5
sbs(g10
g204
tp4583
g0
(g17
g2
Ntp4584
Rp4585
(dp4586
g21
F0.5
sg22
I45
sg23
g0
(g24
g25
(dp4587
I00
I45
stp4588
Rp4589
(dp4590
g22
I45
sg30
Nsg31
Nsg32
Nsbsg33
I3
sg34
F46.5
sbs(g8
g1741
tp4591
g0
(g17
g2
Ntp4592
Rp4593
(dp4594
g21
F0.5
sg22
I45
sg23
g0
(g24
g25
(dp4595
I00
I21
sI01
I24
stp4596
Rp4597
(dp4598
g22
I45
sg30
Nsg31
Nsg32
Nsbsg33
I3
sg34
F46.5
sbs(g12
g1298
tp4599
g0
(g17
g2
Ntp4600
Rp4601
(dp4602
g21
F0.5
sg22
I45
sg23
g0
(g24
g25
(dp4603
I00
I44
sI01
I1
stp4604
Rp4605
(dp4606
g22
I45
sg30
Nsg31
Nsg32
Nsbsg33
I3
sg34
F46.5
sbs(g10
g3099
tp4607
g0
(g17
g2
Ntp4608
Rp4609
(dp4610
g21
F0.5
sg22
I45
sg23
g0
(g24
g25
(dp4611
I00
I27
sI01
I18
stp4612
Rp4613
(dp4614
g22
I45
sg30
Nsg31
Nsg32
Nsbsg33
I3
sg34
F46.5
sbs(g11
g143
tp4615
g0
(g17
g2
Ntp4616
Rp4617
(dp4618
g21
F0.5
sg22
I45
sg23
g0
(g24
g25
(dp4619
I00
I43
sI01
I2
stp4620
Rp4621
(dp4622
g22
I45
sg30
Nsg31
Nsg32
Nsbsg33
I3
sg34
F46.5
sbs(g9
g329
tp4623
g0
(g17
g2
Ntp4624
Rp4625
(dp4626
g21
F0.5
sg22
I45
sg23
g0
(g24
g25
(dp4627
I00
I45
stp4628
Rp4629
(dp4630
g22
I45
sg30
Nsg31
Nsg32
Nsbsg33
I3
sg34
F46.5
sbs(g8
g427
tp4631
g0
(g17
g2
Ntp4632
Rp4633
(dp4634
g21
F0.5
sg22
I45
sg23
g0
(g24
g25
(dp4635
I00
I40
sI01
I5
stp4636
Rp4637
(dp4638
g22
I45
sg30
Nsg31
Nsg32
Nsbsg33
I3
sg34
F46.5
sbs(g10
g2565
tp4639
g0
(g17
g2
Ntp4640
Rp4641
(dp4642
g21
F0.5
sg22
I45
sg23
g0
(g24
g25
(dp4643
I00
I45
stp4644
Rp4645
(dp4646
g22
I45
sg30
Nsg31
Nsg32
Nsbsg33
I3
sg34
F46.5
sbs(g8
g3426
tp4647
g0
(g17
g2
Ntp4648
Rp4649
(dp4650
g21
F0.5
sg22
I45
sg23
g0
(g24
g25
(dp4651
I00
I45
stp4652
Rp4653
(dp4654
g22
I45
sg30
Nsg31
Nsg32
Nsbsg33
I3
sg34
F46.5
sbs(g10
g637
tp4655
g0
(g17
g2
Ntp4656
Rp4657
(dp4658
g21
F0.5
sg22
I45
sg23
g0
(g24
g25
(dp4659
I00
I38
sI01
I7
stp4660
Rp4661
(dp4662
g22
I45
sg30
Nsg31
Nsg32
Nsbsg33
I3
sg34
F46.5
sbs(g9
g143
tp4663
g0
(g17
g2
Ntp4664
Rp4665
(dp4666
g21
F0.5
sg22
I45
sg23
g0
(g24
g25
(dp4667
I00
I44
sI01
I1
stp4668
Rp4669
(dp4670
g22
I45
sg30
Nsg31
Nsg32
Nsbsg33
I3
sg34
F46.5
sbs(g9
g2104
tp4671
g0
(g17
g2
Ntp4672
Rp4673
(dp4674
g21
F0.5
sg22
I45
sg23
g0
(g24
g25
(dp4675
I00
I45
stp4676
Rp4677
(dp4678
g22
I45
sg30
Nsg31
Nsg32
Nsbsg33
I3
sg34
F46.5
sbs(g10
g2747
tp4679
g0
(g17
g2
Ntp4680
Rp4681
(dp4682
g21
F0.5
sg22
I45
sg23
g0
(g24
g25
(dp4683
I00
I45
stp4684
Rp4685
(dp4686
g22
I45
sg30
Nsg31
Nsg32
Nsbsg33
I3
sg34
F46.5
sbs(g12
g2616
tp4687
g0
(g17
g2
Ntp4688
Rp4689
(dp4690
g21
F0.5
sg22
I45
sg23
g0
(g24
g25
(dp4691
I00
I20
sI01
I25
stp4692
Rp4693
(dp4694
g22
I45
sg30
Nsg31
Nsg32
Nsbsg33
I3
sg34
F46.5
sbs(g10
g2616
tp4695
g0
(g17
g2
Ntp4696
Rp4697
(dp4698
g21
F0.5
sg22
I45
sg23
g0
(g24
g25
(dp4699
I00
I24
sI01
I21
stp4700
Rp4701
(dp4702
g22
I45
sg30
Nsg31
Nsg32
Nsbsg33
I3
sg34
F46.5
sbs(g9
g2147
tp4703
g0
(g17
g2
Ntp4704
Rp4705
(dp4706
g21
F0.5
sg22
I45
sg23
g0
(g24
g25
(dp4707
I00
I45
stp4708
Rp4709
(dp4710
g22
I45
sg30
Nsg31
Nsg32
Nsbsg33
I3
sg34
F46.5
sbs(g9
g1469
tp4711
g0
(g17
g2
Ntp4712
Rp4713
(dp4714
g21
F0.5
sg22
I45
sg23
g0
(g24
g25
(dp4715
I00
I45
stp4716
Rp4717
(dp4718
g22
I45
sg30
Nsg31
Nsg32
Nsbsg33
I3
sg34
F46.5
sbs(g9
g293
tp4719
g0
(g17
g2
Ntp4720
Rp4721
(dp4722
g21
F0.5
sg22
I45
sg23
g0
(g24
g25
(dp4723
I00
I18
sI01
I27
stp4724
Rp4725
(dp4726
g22
I45
sg30
Nsg31
Nsg32
Nsbsg33
I3
sg34
F46.5
sbs(g12
g1691
tp4727
g0
(g17
g2
Ntp4728
Rp4729
(dp4730
g21
F0.5
sg22
I45
sg23
g0
(g24
g25
(dp4731
I00
I45
stp4732
Rp4733
(dp4734
g22
I45
sg30
Nsg31
Nsg32
Nsbsg33
I3
sg34
F46.5
sbs(g10
g107
tp4735
g0
(g17
g2
Ntp4736
Rp4737
(dp4738
g21
F0.5
sg22
I45
sg23
g0
(g24
g25
(dp4739
I00
I15
sI01
I30
stp4740
Rp4741
(dp4742
g22
I45
sg30
Nsg31
Nsg32
Nsbsg33
I3
sg34
F46.5
sbs(g10
S"skip:('',,,of)>0"
p4743
tp4744
g0
(g17
g2
Ntp4745
Rp4746
(dp4747
g21
F0.5
sg22
I45
sg23
g0
(g24
g25
(dp4748
I00
I43
sI01
I2
stp4749
Rp4750
(dp4751
g22
I45
sg30
Nsg31
Nsg32
Nsbsg33
I3
sg34
F46.5
sbs(g10
g1640
tp4752
g0
(g17
g2
Ntp4753
Rp4754
(dp4755
g21
F0.5
sg22
I45
sg23
g0
(g24
g25
(dp4756
I00
I45
stp4757
Rp4758
(dp4759
g22
I45
sg30
Nsg31
Nsg32
Nsbsg33
I3
sg34
F46.5
sbs(g12
g1159
tp4760
g0
(g17
g2
Ntp4761
Rp4762
(dp4763
g21
F0.5
sg22
I45
sg23
g0
(g24
g25
(dp4764
I00
I42
sI01
I3
stp4765
Rp4766
(dp4767
g22
I45
sg30
Nsg31
Nsg32
Nsbsg33
I3
sg34
F46.5
sbs(g9
g879
tp4768
g0
(g17
g2
Ntp4769
Rp4770
(dp4771
g21
F0.5
sg22
I45
sg23
g0
(g24
g25
(dp4772
I00
I45
stp4773
Rp4774
(dp4775
g22
I45
sg30
Nsg31
Nsg32
Nsbsg33
I3
sg34
F46.5
sbs(g9
g320
tp4776
g0
(g17
g2
Ntp4777
Rp4778
(dp4779
g21
F0.5
sg22
I45
sg23
g0
(g24
g25
(dp4780
I00
I21
sI01
I24
stp4781
Rp4782
(dp4783
g22
I45
sg30
Nsg31
Nsg32
Nsbsg33
I3
sg34
F46.5
sbs(g11
g1589
tp4784
g0
(g17
g2
Ntp4785
Rp4786
(dp4787
g21
F0.5
sg22
I45
sg23
g0
(g24
g25
(dp4788
I00
I44
sI01
I1
stp4789
Rp4790
(dp4791
g22
I45
sg30
Nsg31
Nsg32
Nsbsg33
I3
sg34
F46.5
sbs(g12
g646
tp4792
g0
(g17
g2
Ntp4793
Rp4794
(dp4795
g21
F0.5
sg22
I45
sg23
g0
(g24
g25
(dp4796
I00
I45
stp4797
Rp4798
(dp4799
g22
I45
sg30
Nsg31
Nsg32
Nsbsg33
I3
sg34
F46.5
sbs(g8
g329
tp4800
g0
(g17
g2
Ntp4801
Rp4802
(dp4803
g21
F0.5
sg22
I45
sg23
g0
(g24
g25
(dp4804
I00
I37
sI01
I8
stp4805
Rp4806
(dp4807
g22
I45
sg30
Nsg31
Nsg32
Nsbsg33
I3
sg34
F46.5
sbs(g8
g258
tp4808
g0
(g17
g2
Ntp4809
Rp4810
(dp4811
g21
F0.5
sg22
I45
sg23
g0
(g24
g25
(dp4812
I00
I45
stp4813
Rp4814
(dp4815
g22
I45
sg30
Nsg31
Nsg32
Nsbsg33
I3
sg34
F46.5
sbs(g11
g3718
tp4816
g0
(g17
g2
Ntp4817
Rp4818
(dp4819
g21
F0.5
sg22
I45
sg23
g0
(g24
g25
(dp4820
I00
I45
stp4821
Rp4822
(dp4823
g22
I45
sg30
Nsg31
Nsg32
Nsbsg33
I3
sg34
F46.5
sbs(g9
g1442
tp4824
g0
(g17
g2
Ntp4825
Rp4826
(dp4827
g21
F0.5
sg22
I45
sg23
g0
(g24
g25
(dp4828
I00
I45
stp4829
Rp4830
(dp4831
g22
I45
sg30
Nsg31
Nsg32
Nsbsg33
I3
sg34
F46.5
sbs(g12
g1357
tp4832
g0
(g17
g2
Ntp4833
Rp4834
(dp4835
g21
F0.5
sg22
I45
sg23
g0
(g24
g25
(dp4836
I00
I44
sI01
I1
stp4837
Rp4838
(dp4839
g22
I45
sg30
Nsg31
Nsg32
Nsbsg33
I3
sg34
F46.5
sbs(g12
g1044
tp4840
g0
(g17
g2
Ntp4841
Rp4842
(dp4843
g21
F0.5
sg22
I45
sg23
g0
(g24
g25
(dp4844
I00
I30
sI01
I15
stp4845
Rp4846
(dp4847
g22
I45
sg30
Nsg31
Nsg32
Nsbsg33
I3
sg34
F46.5
sbs(g11
g4743
tp4848
g0
(g17
g2
Ntp4849
Rp4850
(dp4851
g21
F0.5
sg22
I45
sg23
g0
(g24
g25
(dp4852
I00
I43
sI01
I2
stp4853
Rp4854
(dp4855
g22
I45
sg30
Nsg31
Nsg32
Nsbsg33
I3
sg34
F46.5
sbs(g9
g1390
tp4856
g0
(g17
g2
Ntp4857
Rp4858
(dp4859
g21
F0.5
sg22
I45
sg23
g0
(g24
g25
(dp4860
I00
I39
sI01
I6
stp4861
Rp4862
(dp4863
g22
I45
sg30
Nsg31
Nsg32
Nsbsg33
I3
sg34
F46.5
sbs(g8
g3849
tp4864
g0
(g17
g2
Ntp4865
Rp4866
(dp4867
g21
F0.5
sg22
I45
sg23
g0
(g24
g25
(dp4868
I00
I20
sI01
I25
stp4869
Rp4870
(dp4871
g22
I45
sg30
Nsg31
Nsg32
Nsbsg33
I3
sg34
F46.5
sbs(g9
g2164
tp4872
g0
(g17
g2
Ntp4873
Rp4874
(dp4875
g21
F0.5
sg22
I45
sg23
g0
(g24
g25
(dp4876
I00
I38
sI01
I7
stp4877
Rp4878
(dp4879
g22
I45
sg30
Nsg31
Nsg32
Nsbsg33
I3
sg34
F46.5
sbs(g10
g2256
tp4880
g0
(g17
g2
Ntp4881
Rp4882
(dp4883
g21
F0.5
sg22
I45
sg23
g0
(g24
g25
(dp4884
I00
I45
stp4885
Rp4886
(dp4887
g22
I45
sg30
Nsg31
Nsg32
Nsbsg33
I3
sg34
F46.5
sbs(g10
g1018
tp4888
g0
(g17
g2
Ntp4889
Rp4890
(dp4891
g21
F0.5
sg22
I45
sg23
g0
(g24
g25
(dp4892
I00
I31
sI01
I14
stp4893
Rp4894
(dp4895
g22
I45
sg30
Nsg31
Nsg32
Nsbsg33
I3
sg34
F46.5
sbs(g10
g870
tp4896
g0
(g17
g2
Ntp4897
Rp4898
(dp4899
g21
F0.5
sg22
I45
sg23
g0
(g24
g25
(dp4900
I00
I27
sI01
I18
stp4901
Rp4902
(dp4903
g22
I45
sg30
Nsg31
Nsg32
Nsbsg33
I3
sg34
F46.5
sbs(g12
g3816
tp4904
g0
(g17
g2
Ntp4905
Rp4906
(dp4907
g21
F0.5
sg22
I45
sg23
g0
(g24
g25
(dp4908
I00
I43
sI01
I2
stp4909
Rp4910
(dp4911
g22
I45
sg30
Nsg31
Nsg32
Nsbsg33
I3
sg34
F46.5
sbs(g10
g98
tp4912
g0
(g17
g2
Ntp4913
Rp4914
(dp4915
g21
F0.5
sg22
I45
sg23
g0
(g24
g25
(dp4916
I00
I45
stp4917
Rp4918
(dp4919
g22
I45
sg30
Nsg31
Nsg32
Nsbsg33
I3
sg34
F46.5
sbs(g8
g3547
tp4920
g0
(g17
g2
Ntp4921
Rp4922
(dp4923
g21
F0.5
sg22
I45
sg23
g0
(g24
g25
(dp4924
I00
I33
sI01
I12
stp4925
Rp4926
(dp4927
g22
I45
sg30
Nsg31
Nsg32
Nsbsg33
I3
sg34
F46.5
sbs(g12
g249
tp4928
g0
(g17
g2
Ntp4929
Rp4930
(dp4931
g21
F0.5
sg22
I45
sg23
g0
(g24
g25
(dp4932
I00
I45
stp4933
Rp4934
(dp4935
g22
I45
sg30
Nsg31
Nsg32
Nsbsg33
I3
sg34
F46.5
sbs(g9
g1348
tp4936
g0
(g17
g2
Ntp4937
Rp4938
(dp4939
g21
F0.5
sg22
I45
sg23
g0
(g24
g25
(dp4940
I00
I45
stp4941
Rp4942
(dp4943
g22
I45
sg30
Nsg31
Nsg32
Nsbsg33
I3
sg34
F46.5
sbs(g8
g472
tp4944
g0
(g17
g2
Ntp4945
Rp4946
(dp4947
g21
F0.5
sg22
I45
sg23
g0
(g24
g25
(dp4948
I00
I21
sI01
I24
stp4949
Rp4950
(dp4951
g22
I45
sg30
Nsg31
Nsg32
Nsbsg33
I3
sg34
F46.5
sbs(g10
g930
tp4952
g0
(g17
g2
Ntp4953
Rp4954
(dp4955
g21
F0.5
sg22
I45
sg23
g0
(g24
g25
(dp4956
I00
I45
stp4957
Rp4958
(dp4959
g22
I45
sg30
Nsg31
Nsg32
Nsbsg33
I3
sg34
F46.5
sbs(g9
g338
tp4960
g0
(g17
g2
Ntp4961
Rp4962
(dp4963
g21
F0.5
sg22
I45
sg23
g0
(g24
g25
(dp4964
I00
I43
sI01
I2
stp4965
Rp4966
(dp4967
g22
I45
sg30
Nsg31
Nsg32
Nsbsg33
I3
sg34
F46.5
sbs(g8
g1555
tp4968
g0
(g17
g2
Ntp4969
Rp4970
(dp4971
g21
F0.5
sg22
I45
sg23
g0
(g24
g25
(dp4972
I00
I40
sI01
I5
stp4973
Rp4974
(dp4975
g22
I45
sg30
Nsg31
Nsg32
Nsbsg33
I3
sg34
F46.5
sbs(g10
g320
tp4976
g0
(g17
g2
Ntp4977
Rp4978
(dp4979
g21
F0.5
sg22
I45
sg23
g0
(g24
g25
(dp4980
I00
I24
sI01
I21
stp4981
Rp4982
(dp4983
g22
I45
sg30
Nsg31
Nsg32
Nsbsg33
I3
sg34
F46.5
sbs(g10
g879
tp4984
g0
(g17
g2
Ntp4985
Rp4986
(dp4987
g21
F0.5
sg22
I45
sg23
g0
(g24
g25
(dp4988
I00
I45
stp4989
Rp4990
(dp4991
g22
I45
sg30
Nsg31
Nsg32
Nsbsg33
I3
sg34
F46.5
sbs(g11
g1044
tp4992
g0
(g17
g2
Ntp4993
Rp4994
(dp4995
g21
F0.5
sg22
I45
sg23
g0
(g24
g25
(dp4996
I00
I25
sI01
I20
stp4997
Rp4998
(dp4999
g22
I45
sg30
Nsg31
Nsg32
Nsbsg33
I3
sg34
F46.5
sbs(g9
g2927
tp5000
g0
(g17
g2
Ntp5001
Rp5002
(dp5003
g21
F0.5
sg22
I45
sg23
g0
(g24
g25
(dp5004
I00
I45
stp5005
Rp5006
(dp5007
g22
I45
sg30
Nsg31
Nsg32
Nsbsg33
I3
sg34
F46.5
sbs(g10
g1495
tp5008
g0
(g17
g2
Ntp5009
Rp5010
(dp5011
g21
F0.5
sg22
I45
sg23
g0
(g24
g25
(dp5012
I00
I45
stp5013
Rp5014
(dp5015
g22
I45
sg30
Nsg31
Nsg32
Nsbsg33
I3
sg34
F46.5
sbs(g9
g1106
tp5016
g0
(g17
g2
Ntp5017
Rp5018
(dp5019
g21
F0.5
sg22
I45
sg23
g0
(g24
g25
(dp5020
I00
I45
stp5021
Rp5022
(dp5023
g22
I45
sg30
Nsg31
Nsg32
Nsbsg33
I3
sg34
F46.5
sbs(g9
g4028
tp5024
g0
(g17
g2
Ntp5025
Rp5026
(dp5027
g21
F0.5
sg22
I45
sg23
g0
(g24
g25
(dp5028
I00
I27
sI01
I18
stp5029
Rp5030
(dp5031
g22
I45
sg30
Nsg31
Nsg32
Nsbsg33
I3
sg34
F46.5
sbs(g10
g134
tp5032
g0
(g17
g2
Ntp5033
Rp5034
(dp5035
g21
F0.5
sg22
I45
sg23
g0
(g24
g25
(dp5036
I00
I45
stp5037
Rp5038
(dp5039
g22
I45
sg30
Nsg31
Nsg32
Nsbsg33
I3
sg34
F46.5
sbs(g9
g409
tp5040
g0
(g17
g2
Ntp5041
Rp5042
(dp5043
g21
F0.5
sg22
I45
sg23
g0
(g24
g25
(dp5044
I00
I18
sI01
I27
stp5045
Rp5046
(dp5047
g22
I45
sg30
Nsg31
Nsg32
Nsbsg33
I3
sg34
F46.5
sbs(g10
g472
tp5048
g0
(g17
g2
Ntp5049
Rp5050
(dp5051
g21
F0.5
sg22
I45
sg23
g0
(g24
g25
(dp5052
I00
I23
sI01
I22
stp5053
Rp5054
(dp5055
g22
I45
sg30
Nsg31
Nsg32
Nsbsg33
I3
sg34
F46.5
sbs(g12
g2993
tp5056
g0
(g17
g2
Ntp5057
Rp5058
(dp5059
g21
F0.5
sg22
I45
sg23
g0
(g24
g25
(dp5060
I00
I43
sI01
I2
stp5061
Rp5062
(dp5063
g22
I45
sg30
Nsg31
Nsg32
Nsbsg33
I3
sg34
F46.5
sbs(g8
g3783
tp5064
g0
(g17
g2
Ntp5065
Rp5066
(dp5067
g21
F0.5
sg22
I45
sg23
g0
(g24
g25
(dp5068
I00
I24
sI01
I21
stp5069
Rp5070
(dp5071
g22
I45
sg30
Nsg31
Nsg32
Nsbsg33
I3
sg34
F46.5
sbs(g11
g3866
tp5072
g0
(g17
g2
Ntp5073
Rp5074
(dp5075
g21
F0.5
sg22
I45
sg23
g0
(g24
g25
(dp5076
I00
I45
stp5077
Rp5078
(dp5079
g22
I45
sg30
Nsg31
Nsg32
Nsbsg33
I3
sg34
F46.5
sbs(g8
g577
tp5080
g0
(g17
g2
Ntp5081
Rp5082
(dp5083
g21
F0.5
sg22
I45
sg23
g0
(g24
g25
(dp5084
I00
I45
stp5085
Rp5086
(dp5087
g22
I45
sg30
Nsg31
Nsg32
Nsbsg33
I3
sg34
F46.5
sbs(g11
g2138
tp5088
g0
(g17
g2
Ntp5089
Rp5090
(dp5091
g21
F0.5
sg22
I45
sg23
g0
(g24
g25
(dp5092
I00
I45
stp5093
Rp5094
(dp5095
g22
I45
sg30
Nsg31
Nsg32
Nsbsg33
I3
sg34
F46.5
sbs(g10
g3572
tp5096
g0
(g17
g2
Ntp5097
Rp5098
(dp5099
g21
F0.5
sg22
I45
sg23
g0
(g24
g25
(dp5100
I00
I43
sI01
I2
stp5101
Rp5102
(dp5103
g22
I45
sg30
Nsg31
Nsg32
Nsbsg33
I3
sg34
F46.5
sbs(g9
g716
tp5104
g0
(g17
g2
Ntp5105
Rp5106
(dp5107
g21
F0.5
sg22
I45
sg23
g0
(g24
g25
(dp5108
I00
I45
stp5109
Rp5110
(dp5111
g22
I45
sg30
Nsg31
Nsg32
Nsbsg33
I3
sg34
F46.5
sbs(g8
g1495
tp5112
g0
(g17
g2
Ntp5113
Rp5114
(dp5115
g21
F0.5
sg22
I45
sg23
g0
(g24
g25
(dp5116
I00
I45
stp5117
Rp5118
(dp5119
g22
I45
sg30
Nsg31
Nsg32
Nsbsg33
I3
sg34
F46.5
sbs(g8
g1150
tp5120
g0
(g17
g2
Ntp5121
Rp5122
(dp5123
g21
F0.5
sg22
I45
sg23
g0
(g24
g25
(dp5124
I00
I45
stp5125
Rp5126
(dp5127
g22
I45
sg30
Nsg31
Nsg32
Nsbsg33
I3
sg34
F46.5
sbs(g10
g1228
tp5128
g0
(g17
g2
Ntp5129
Rp5130
(dp5131
g21
F0.5
sg22
I45
sg23
g0
(g24
g25
(dp5132
I00
I42
sI01
I3
stp5133
Rp5134
(dp5135
g22
I45
sg30
Nsg31
Nsg32
Nsbsg33
I3
sg34
F46.5
sbs(g9
g2265
tp5136
g0
(g17
g2
Ntp5137
Rp5138
(dp5139
g21
F0.5
sg22
I45
sg23
g0
(g24
g25
(dp5140
I00
I45
stp5141
Rp5142
(dp5143
g22
I45
sg30
Nsg31
Nsg32
Nsbsg33
I3
sg34
F46.5
sbs(g10
g347
tp5144
g0
(g17
g2
Ntp5145
Rp5146
(dp5147
g21
F0.5
sg22
I45
sg23
g0
(g24
g25
(dp5148
I00
I45
stp5149
Rp5150
(dp5151
g22
I45
sg30
Nsg31
Nsg32
Nsbsg33
I3
sg34
F46.5
sbs(g11
g793
tp5152
g0
(g17
g2
Ntp5153
Rp5154
(dp5155
g21
F0.5
sg22
I45
sg23
g0
(g24
g25
(dp5156
I00
I45
stp5157
Rp5158
(dp5159
g22
I45
sg30
Nsg31
Nsg32
Nsbsg33
I3
sg34
F46.5
sbs(g8
g2129
tp5160
g0
(g17
g2
Ntp5161
Rp5162
(dp5163
g21
F0.5
sg22
I45
sg23
g0
(g24
g25
(dp5164
I00
I45
stp5165
Rp5166
(dp5167
g22
I45
sg30
Nsg31
Nsg32
Nsbsg33
I3
sg34
F46.5
sbs(g10
g664
tp5168
g0
(g17
g2
Ntp5169
Rp5170
(dp5171
g21
F0.5
sg22
I45
sg23
g0
(g24
g25
(dp5172
I00
I45
stp5173
Rp5174
(dp5175
g22
I45
sg30
Nsg31
Nsg32
Nsbsg33
I3
sg34
F46.5
sbs(g10
g1776
tp5176
g0
(g17
g2
Ntp5177
Rp5178
(dp5179
g21
F0.5
sg22
I45
sg23
g0
(g24
g25
(dp5180
I00
I37
sI01
I8
stp5181
Rp5182
(dp5183
g22
I45
sg30
Nsg31
Nsg32
Nsbsg33
I3
sg34
F46.5
sbs(g9
g1520
tp5184
g0
(g17
g2
Ntp5185
Rp5186
(dp5187
g21
F0.5
sg22
I45
sg23
g0
(g24
g25
(dp5188
I00
I45
stp5189
Rp5190
(dp5191
g22
I45
sg30
Nsg31
Nsg32
Nsbsg33
I3
sg34
F46.5
sbs(g11
g3417
tp5192
g0
(g17
g2
Ntp5193
Rp5194
(dp5195
g21
F0.5
sg22
I45
sg23
g0
(g24
g25
(dp5196
I00
I45
stp5197
Rp5198
(dp5199
g22
I45
sg30
Nsg31
Nsg32
Nsbsg33
I3
sg34
F46.5
sbs(g8
g116
tp5200
g0
(g17
g2
Ntp5201
Rp5202
(dp5203
g21
F0.5
sg22
I45
sg23
g0
(g24
g25
(dp5204
I00
I40
sI01
I5
stp5205
Rp5206
(dp5207
g22
I45
sg30
Nsg31
Nsg32
Nsbsg33
I3
sg34
F46.5
sbs(g11
S'skip:(for,in,protest)>0'
p5208
tp5209
g0
(g17
g2
Ntp5210
Rp5211
(dp5212
g21
F0.5
sg22
I45
sg23
g0
(g24
g25
(dp5213
I00
I39
sI01
I6
stp5214
Rp5215
(dp5216
g22
I45
sg30
Nsg31
Nsg32
Nsbsg33
I3
sg34
F46.5
sbs(g9
g1537
tp5217
g0
(g17
g2
Ntp5218
Rp5219
(dp5220
g21
F0.5
sg22
I45
sg23
g0
(g24
g25
(dp5221
I00
I33
sI01
I12
stp5222
Rp5223
(dp5224
g22
I45
sg30
Nsg31
Nsg32
Nsbsg33
I3
sg34
F46.5
sbs(g11
g1750
tp5225
g0
(g17
g2
Ntp5226
Rp5227
(dp5228
g21
F0.5
sg22
I45
sg23
g0
(g24
g25
(dp5229
I00
I10
sI01
I35
stp5230
Rp5231
(dp5232
g22
I45
sg30
Nsg31
Nsg32
Nsbsg33
I3
sg34
F46.5
sbs(g8
g1176
tp5233
g0
(g17
g2
Ntp5234
Rp5235
(dp5236
g21
F0.5
sg22
I45
sg23
g0
(g24
g25
(dp5237
I00
I44
sI01
I1
stp5238
Rp5239
(dp5240
g22
I45
sg30
Nsg31
Nsg32
Nsbsg33
I3
sg34
F46.5
sbs(g11
g4003
tp5241
g0
(g17
g2
Ntp5242
Rp5243
(dp5244
g21
F0.5
sg22
I45
sg23
g0
(g24
g25
(dp5245
I00
I40
sI01
I5
stp5246
Rp5247
(dp5248
g22
I45
sg30
Nsg31
Nsg32
Nsbsg33
I3
sg34
F46.5
sbs(g9
g2456
tp5249
g0
(g17
g2
Ntp5250
Rp5251
(dp5252
g21
F0.5
sg22
I45
sg23
g0
(g24
g25
(dp5253
I00
I45
stp5254
Rp5255
(dp5256
g22
I45
sg30
Nsg31
Nsg32
Nsbsg33
I3
sg34
F46.5
sbs(g12
g594
tp5257
g0
(g17
g2
Ntp5258
Rp5259
(dp5260
g21
F0.5
sg22
I45
sg23
g0
(g24
g25
(dp5261
I00
I45
stp5262
Rp5263
(dp5264
g22
I45
sg30
Nsg31
Nsg32
Nsbsg33
I3
sg34
F46.5
sbs(g10
g2625
tp5265
g0
(g17
g2
Ntp5266
Rp5267
(dp5268
g21
F0.5
sg22
I45
sg23
g0
(g24
g25
(dp5269
I00
I45
stp5270
Rp5271
(dp5272
g22
I45
sg30
Nsg31
Nsg32
Nsbsg33
I3
sg34
F46.5
sbs(g11
g3254
tp5273
g0
(g17
g2
Ntp5274
Rp5275
(dp5276
g21
F0.5
sg22
I45
sg23
g0
(g24
g25
(dp5277
I00
I45
stp5278
Rp5279
(dp5280
g22
I45
sg30
Nsg31
Nsg32
Nsbsg33
I3
sg34
F46.5
sbs(g8
g1097
tp5281
g0
(g17
g2
Ntp5282
Rp5283
(dp5284
g21
F0.5
sg22
I45
sg23
g0
(g24
g25
(dp5285
I00
I39
sI01
I6
stp5286
Rp5287
(dp5288
g22
I45
sg30
Nsg31
Nsg32
Nsbsg33
I3
sg34
F46.5
sbs(g8
g2256
tp5289
g0
(g17
g2
Ntp5290
Rp5291
(dp5292
g21
F0.5
sg22
I45
sg23
g0
(g24
g25
(dp5293
I00
I45
stp5294
Rp5295
(dp5296
g22
I45
sg30
Nsg31
Nsg32
Nsbsg33
I3
sg34
F46.5
sbs(g10
g2316
tp5297
g0
(g17
g2
Ntp5298
Rp5299
(dp5300
g21
F0.5
sg22
I45
sg23
g0
(g24
g25
(dp5301
I00
I29
sI01
I16
stp5302
Rp5303
(dp5304
g22
I45
sg30
Nsg31
Nsg32
Nsbsg33
I3
sg34
F46.5
sbs(g11
g2829
tp5305
g0
(g17
g2
Ntp5306
Rp5307
(dp5308
g21
F0.5
sg22
I45
sg23
g0
(g24
g25
(dp5309
I00
I45
stp5310
Rp5311
(dp5312
g22
I45
sg30
Nsg31
Nsg32
Nsbsg33
I3
sg34
F46.5
sbs(g8
g1254
tp5313
g0
(g17
g2
Ntp5314
Rp5315
(dp5316
g21
F0.5
sg22
I45
sg23
g0
(g24
g25
(dp5317
I00
I45
stp5318
Rp5319
(dp5320
g22
I45
sg30
Nsg31
Nsg32
Nsbsg33
I3
sg34
F46.5
sbs(g11
g1892
tp5321
g0
(g17
g2
Ntp5322
Rp5323
(dp5324
g21
F0.5
sg22
I45
sg23
g0
(g24
g25
(dp5325
I00
I41
sI01
I4
stp5326
Rp5327
(dp5328
g22
I45
sg30
Nsg31
Nsg32
Nsbsg33
I3
sg34
F46.5
sbs(g8
g810
tp5329
g0
(g17
g2
Ntp5330
Rp5331
(dp5332
g21
F0.5
sg22
I45
sg23
g0
(g24
g25
(dp5333
I00
I38
sI01
I7
stp5334
Rp5335
(dp5336
g22
I45
sg30
Nsg31
Nsg32
Nsbsg33
I3
sg34
F46.5
sbs(g9
g71
tp5337
g0
(g17
g2
Ntp5338
Rp5339
(dp5340
g21
F0.5
sg22
I45
sg23
g0
(g24
g25
(dp5341
I00
I38
sI01
I7
stp5342
Rp5343
(dp5344
g22
I45
sg30
Nsg31
Nsg32
Nsbsg33
I3
sg34
F46.5
sbs(g12
g2383
tp5345
g0
(g17
g2
Ntp5346
Rp5347
(dp5348
g21
F0.5
sg22
I45
sg23
g0
(g24
g25
(dp5349
I00
I45
stp5350
Rp5351
(dp5352
g22
I45
sg30
Nsg31
Nsg32
Nsbsg33
I3
sg34
F46.5
sbs(g11
g1674
tp5353
g0
(g17
g2
Ntp5354
Rp5355
(dp5356
g21
F0.5
sg22
I45
sg23
g0
(g24
g25
(dp5357
I00
I26
sI01
I19
stp5358
Rp5359
(dp5360
g22
I45
sg30
Nsg31
Nsg32
Nsbsg33
I3
sg34
F46.5
sbs(g9
g1228
tp5361
g0
(g17
g2
Ntp5362
Rp5363
(dp5364
g21
F0.5
sg22
I45
sg23
g0
(g24
g25
(dp5365
I00
I38
sI01
I7
stp5366
Rp5367
(dp5368
g22
I45
sg30
Nsg31
Nsg32
Nsbsg33
I3
sg34
F46.5
sbs(g8
g1315
tp5369
g0
(g17
g2
Ntp5370
Rp5371
(dp5372
g21
F0.5
sg22
I45
sg23
g0
(g24
g25
(dp5373
I00
I23
sI01
I22
stp5374
Rp5375
(dp5376
g22
I45
sg30
Nsg31
Nsg32
Nsbsg33
I3
sg34
F46.5
sbs(g10
g231
tp5377
g0
(g17
g2
Ntp5378
Rp5379
(dp5380
g21
F0.5
sg22
I45
sg23
g0
(g24
g25
(dp5381
I00
I24
sI01
I21
stp5382
Rp5383
(dp5384
g22
I45
sg30
Nsg31
Nsg32
Nsbsg33
I3
sg34
F46.5
sbs(g10
g222
tp5385
g0
(g17
g2
Ntp5386
Rp5387
(dp5388
g21
F0.5
sg22
I45
sg23
g0
(g24
g25
(dp5389
I00
I45
stp5390
Rp5391
(dp5392
g22
I45
sg30
Nsg31
Nsg32
Nsbsg33
I3
sg34
F46.5
sbs(g8
g2574
tp5393
g0
(g17
g2
Ntp5394
Rp5395
(dp5396
g21
F0.5
sg22
I45
sg23
g0
(g24
g25
(dp5397
I00
I26
sI01
I19
stp5398
Rp5399
(dp5400
g22
I45
sg30
Nsg31
Nsg32
Nsbsg33
I3
sg34
F46.5
sbs(g10
g4229
tp5401
g0
(g17
g2
Ntp5402
Rp5403
(dp5404
g21
F0.5
sg22
I45
sg23
g0
(g24
g25
(dp5405
I00
I44
sI01
I1
stp5406
Rp5407
(dp5408
g22
I45
sg30
Nsg31
Nsg32
Nsbsg33
I3
sg34
F46.5
sbs(g10
g964
tp5409
g0
(g17
g2
Ntp5410
Rp5411
(dp5412
g21
F0.5
sg22
I45
sg23
g0
(g24
g25
(dp5413
I00
I39
sI01
I6
stp5414
Rp5415
(dp5416
g22
I45
sg30
Nsg31
Nsg32
Nsbsg33
I3
sg34
F46.5
sbs(g10
g3718
tp5417
g0
(g17
g2
Ntp5418
Rp5419
(dp5420
g21
F0.5
sg22
I45
sg23
g0
(g24
g25
(dp5421
I00
I41
sI01
I4
stp5422
Rp5423
(dp5424
g22
I45
sg30
Nsg31
Nsg32
Nsbsg33
I3
sg34
F46.5
sbs(g10
g973
tp5425
g0
(g17
g2
Ntp5426
Rp5427
(dp5428
g21
F0.5
sg22
I45
sg23
g0
(g24
g25
(dp5429
I00
I45
stp5430
Rp5431
(dp5432
g22
I45
sg30
Nsg31
Nsg32
Nsbsg33
I3
sg34
F46.5
sbs(g9
g1176
tp5433
g0
(g17
g2
Ntp5434
Rp5435
(dp5436
g21
F0.5
sg22
I45
sg23
g0
(g24
g25
(dp5437
I00
I45
stp5438
Rp5439
(dp5440
g22
I45
sg30
Nsg31
Nsg32
Nsbsg33
I3
sg34
F46.5
sbs(g8
g1289
tp5441
g0
(g17
g2
Ntp5442
Rp5443
(dp5444
g21
F0.5
sg22
I45
sg23
g0
(g24
g25
(dp5445
I00
I45
stp5446
Rp5447
(dp5448
g22
I45
sg30
Nsg31
Nsg32
Nsbsg33
I3
sg34
F46.5
sbs(g9
g2071
tp5449
g0
(g17
g2
Ntp5450
Rp5451
(dp5452
g21
F0.5
sg22
I45
sg23
g0
(g24
g25
(dp5453
I00
I40
sI01
I5
stp5454
Rp5455
(dp5456
g22
I45
sg30
Nsg31
Nsg32
Nsbsg33
I3
sg34
F46.5
sbs(g12
g213
tp5457
g0
(g17
g2
Ntp5458
Rp5459
(dp5460
g21
F0.5
sg22
I45
sg23
g0
(g24
g25
(dp5461
I00
I36
sI01
I9
stp5462
Rp5463
(dp5464
g22
I45
sg30
Nsg31
Nsg32
Nsbsg33
I3
sg34
F46.5
sbs(g8
g374
tp5465
g0
(g17
g2
Ntp5466
Rp5467
(dp5468
g21
F0.5
sg22
I45
sg23
g0
(g24
g25
(dp5469
I00
I45
stp5470
Rp5471
(dp5472
g22
I45
sg30
Nsg31
Nsg32
Nsbsg33
I3
sg34
F46.5
sbs(g8
g3417
tp5473
g0
(g17
g2
Ntp5474
Rp5475
(dp5476
g21
F0.5
sg22
I45
sg23
g0
(g24
g25
(dp5477
I00
I45
stp5478
Rp5479
(dp5480
g22
I45
sg30
Nsg31
Nsg32
Nsbsg33
I3
sg34
F46.5
sbs(g11
g1399
tp5481
g0
(g17
g2
Ntp5482
Rp5483
(dp5484
g21
F0.5
sg22
I45
sg23
g0
(g24
g25
(dp5485
I00
I38
sI01
I7
stp5486
Rp5487
(dp5488
g22
I45
sg30
Nsg31
Nsg32
Nsbsg33
I3
sg34
F46.5
sbs(g8
g1132
tp5489
g0
(g17
g2
Ntp5490
Rp5491
(dp5492
g21
F0.5
sg22
I45
sg23
g0
(g24
g25
(dp5493
I00
I45
stp5494
Rp5495
(dp5496
g22
I45
sg30
Nsg31
Nsg32
Nsbsg33
I3
sg34
F46.5
sbs(g8
g716
tp5497
g0
(g17
g2
Ntp5498
Rp5499
(dp5500
g21
F0.5
sg22
I45
sg23
g0
(g24
g25
(dp5501
I00
I45
stp5502
Rp5503
(dp5504
g22
I45
sg30
Nsg31
Nsg32
Nsbsg33
I3
sg34
F46.5
sbs(g10
g89
tp5505
g0
(g17
g2
Ntp5506
Rp5507
(dp5508
g21
F0.5
sg22
I45
sg23
g0
(g24
g25
(dp5509
I00
I45
stp5510
Rp5511
(dp5512
g22
I45
sg30
Nsg31
Nsg32
Nsbsg33
I3
sg34
F46.5
sbs(g12
g2820
tp5513
g0
(g17
g2
Ntp5514
Rp5515
(dp5516
g21
F0.5
sg22
I45
sg23
g0
(g24
g25
(dp5517
I00
I45
stp5518
Rp5519
(dp5520
g22
I45
sg30
Nsg31
Nsg32
Nsbsg33
I3
sg34
F46.5
sbs(g8
g498
tp5521
g0
(g17
g2
Ntp5522
Rp5523
(dp5524
g21
F0.5
sg22
I45
sg23
g0
(g24
g25
(dp5525
I00
I31
sI01
I14
stp5526
Rp5527
(dp5528
g22
I45
sg30
Nsg31
Nsg32
Nsbsg33
I3
sg34
F46.5
sbs(g12
g2483
tp5529
g0
(g17
g2
Ntp5530
Rp5531
(dp5532
g21
F0.5
sg22
I45
sg23
g0
(g24
g25
(dp5533
I00
I45
stp5534
Rp5535
(dp5536
g22
I45
sg30
Nsg31
Nsg32
Nsbsg33
I3
sg34
F46.5
sbs(g9
g3132
tp5537
g0
(g17
g2
Ntp5538
Rp5539
(dp5540
g21
F0.5
sg22
I45
sg23
g0
(g24
g25
(dp5541
I00
I41
sI01
I4
stp5542
Rp5543
(dp5544
g22
I45
sg30
Nsg31
Nsg32
Nsbsg33
I3
sg34
F46.5
sbs(g12
g3572
tp5545
g0
(g17
g2
Ntp5546
Rp5547
(dp5548
g21
F0.5
sg22
I45
sg23
g0
(g24
g25
(dp5549
I00
I44
sI01
I1
stp5550
Rp5551
(dp5552
g22
I45
sg30
Nsg31
Nsg32
Nsbsg33
I3
sg34
F46.5
sbs(g10
g1580
tp5553
g0
(g17
g2
Ntp5554
Rp5555
(dp5556
g21
F0.5
sg22
I45
sg23
g0
(g24
g25
(dp5557
I00
I2
sI01
I43
stp5558
Rp5559
(dp5560
g22
I45
sg30
Nsg31
Nsg32
Nsbsg33
I3
sg34
F46.5
sbs(g12
g2231
tp5561
g0
(g17
g2
Ntp5562
Rp5563
(dp5564
g21
F0.5
sg22
I45
sg23
g0
(g24
g25
(dp5565
I00
I42
sI01
I3
stp5566
Rp5567
(dp5568
g22
I45
sg30
Nsg31
Nsg32
Nsbsg33
I3
sg34
F46.5
sbs(g11
g1537
tp5569
g0
(g17
g2
Ntp5570
Rp5571
(dp5572
g21
F0.5
sg22
I45
sg23
g0
(g24
g25
(dp5573
I00
I45
stp5574
Rp5575
(dp5576
g22
I45
sg30
Nsg31
Nsg32
Nsbsg33
I3
sg34
F46.5
sbs(g9
g560
tp5577
g0
(g17
g2
Ntp5578
Rp5579
(dp5580
g21
F0.5
sg22
I45
sg23
g0
(g24
g25
(dp5581
I00
I32
sI01
I13
stp5582
Rp5583
(dp5584
g22
I45
sg30
Nsg31
Nsg32
Nsbsg33
I3
sg34
F46.5
sbs(g9
g1150
tp5585
g0
(g17
g2
Ntp5586
Rp5587
(dp5588
g21
F0.5
sg22
I45
sg23
g0
(g24
g25
(dp5589
I00
I28
sI01
I17
stp5590
Rp5591
(dp5592
g22
I45
sg30
Nsg31
Nsg32
Nsbsg33
I3
sg34
F46.5
sbs(g12
g3426
tp5593
g0
(g17
g2
Ntp5594
Rp5595
(dp5596
g21
F0.5
sg22
I45
sg23
g0
(g24
g25
(dp5597
I00
I45
stp5598
Rp5599
(dp5600
g22
I45
sg30
Nsg31
Nsg32
Nsbsg33
I3
sg34
F46.5
sbs(g8
S'bi:(analyst,say)>0'
p5601
tp5602
g0
(g17
g2
Ntp5603
Rp5604
(dp5605
g21
F0.5
sg22
I45
sg23
g0
(g24
g25
(dp5606
I00
I44
sI01
I1
stp5607
Rp5608
(dp5609
g22
I45
sg30
Nsg31
Nsg32
Nsbsg33
I3
sg34
F46.5
sbs(g10
g356
tp5610
g0
(g17
g2
Ntp5611
Rp5612
(dp5613
g21
F0.5
sg22
I45
sg23
g0
(g24
g25
(dp5614
I01
I45
stp5615
Rp5616
(dp5617
g22
I45
sg30
Nsg31
Nsg32
Nsbsg33
I3
sg34
F46.5
sbs(g12
g733
tp5618
g0
(g17
g2
Ntp5619
Rp5620
(dp5621
g21
F0.5
sg22
I45
sg23
g0
(g24
g25
(dp5622
I00
I22
sI01
I23
stp5623
Rp5624
(dp5625
g22
I45
sg30
Nsg31
Nsg32
Nsbsg33
I3
sg34
F46.5
sbs(g12
g35
tp5626
g0
(g17
g2
Ntp5627
Rp5628
(dp5629
g21
F0.5
sg22
I45
sg23
g0
(g24
g25
(dp5630
I00
I45
stp5631
Rp5632
(dp5633
g22
I45
sg30
Nsg31
Nsg32
Nsbsg33
I3
sg34
F46.5
sbs(g12
g1408
tp5634
g0
(g17
g2
Ntp5635
Rp5636
(dp5637
g21
F0.5
sg22
I45
sg23
g0
(g24
g25
(dp5638
I00
I41
sI01
I4
stp5639
Rp5640
(dp5641
g22
I45
sg30
Nsg31
Nsg32
Nsbsg33
I3
sg34
F46.5
sbs(g12
g1399
tp5642
g0
(g17
g2
Ntp5643
Rp5644
(dp5645
g21
F0.5
sg22
I45
sg23
g0
(g24
g25
(dp5646
I00
I45
stp5647
Rp5648
(dp5649
g22
I45
sg30
Nsg31
Nsg32
Nsbsg33
I3
sg34
F46.5
sbs(g12
g2465
tp5650
g0
(g17
g2
Ntp5651
Rp5652
(dp5653
g21
F0.5
sg22
I45
sg23
g0
(g24
g25
(dp5654
I00
I38
sI01
I7
stp5655
Rp5656
(dp5657
g22
I45
sg30
Nsg31
Nsg32
Nsbsg33
I3
sg34
F46.5
sbs(g8
g1272
tp5658
g0
(g17
g2
Ntp5659
Rp5660
(dp5661
g21
F0.5
sg22
I45
sg23
g0
(g24
g25
(dp5662
I00
I39
sI01
I6
stp5663
Rp5664
(dp5665
g22
I45
sg30
Nsg31
Nsg32
Nsbsg33
I3
sg34
F46.5
sbs(g10
g3417
tp5666
g0
(g17
g2
Ntp5667
Rp5668
(dp5669
g21
F0.5
sg22
I45
sg23
g0
(g24
g25
(dp5670
I00
I45
stp5671
Rp5672
(dp5673
g22
I45
sg30
Nsg31
Nsg32
Nsbsg33
I3
sg34
F46.5
sbs(g8
g767
tp5674
g0
(g17
g2
Ntp5675
Rp5676
(dp5677
g21
F0.5
sg22
I45
sg23
g0
(g24
g25
(dp5678
I00
I45
stp5679
Rp5680
(dp5681
g22
I45
sg30
Nsg31
Nsg32
Nsbsg33
I3
sg34
F46.5
sbs(g9
g682
tp5682
g0
(g17
g2
Ntp5683
Rp5684
(dp5685
g21
F0.5
sg22
I45
sg23
g0
(g24
g25
(dp5686
I00
I45
stp5687
Rp5688
(dp5689
g22
I45
sg30
Nsg31
Nsg32
Nsbsg33
I3
sg34
F46.5
sbs(g10
g2366
tp5690
g0
(g17
g2
Ntp5691
Rp5692
(dp5693
g21
F0.5
sg22
I45
sg23
g0
(g24
g25
(dp5694
I00
I38
sI01
I7
stp5695
Rp5696
(dp5697
g22
I45
sg30
Nsg31
Nsg32
Nsbsg33
I3
sg34
F46.5
sbs(g8
g1580
tp5698
g0
(g17
g2
Ntp5699
Rp5700
(dp5701
g21
F0.5
sg22
I45
sg23
g0
(g24
g25
(dp5702
I00
I5
sI01
I40
stp5703
Rp5704
(dp5705
g22
I45
sg30
Nsg31
Nsg32
Nsbsg33
I3
sg34
F46.5
sbs(g8
g2993
tp5706
g0
(g17
g2
Ntp5707
Rp5708
(dp5709
g21
F0.5
sg22
I45
sg23
g0
(g24
g25
(dp5710
I00
I45
stp5711
Rp5712
(dp5713
g22
I45
sg30
Nsg31
Nsg32
Nsbsg33
I3
sg34
F46.5
sbs(g12
g5601
tp5714
g0
(g17
g2
Ntp5715
Rp5716
(dp5717
g21
F0.5
sg22
I45
sg23
g0
(g24
g25
(dp5718
I00
I27
sI01
I18
stp5719
Rp5720
(dp5721
g22
I45
sg30
Nsg31
Nsg32
Nsbsg33
I3
sg34
F46.5
sbs(g8
g870
tp5722
g0
(g17
g2
Ntp5723
Rp5724
(dp5725
g21
F0.5
sg22
I45
sg23
g0
(g24
g25
(dp5726
I00
I43
sI01
I2
stp5727
Rp5728
(dp5729
g22
I45
sg30
Nsg31
Nsg32
Nsbsg33
I3
sg34
F46.5
sbs(g8
g445
tp5730
g0
(g17
g2
Ntp5731
Rp5732
(dp5733
g21
F0.5
sg22
I45
sg23
g0
(g24
g25
(dp5734
I00
I45
stp5735
Rp5736
(dp5737
g22
I45
sg30
Nsg31
Nsg32
Nsbsg33
I3
sg34
F46.5
sbs(g11
g1298
tp5738
g0
(g17
g2
Ntp5739
Rp5740
(dp5741
g21
F0.5
sg22
I45
sg23
g0
(g24
g25
(dp5742
I00
I44
sI01
I1
stp5743
Rp5744
(dp5745
g22
I45
sg30
Nsg31
Nsg32
Nsbsg33
I3
sg34
F46.5
sbs(g10
g418
tp5746
g0
(g17
g2
Ntp5747
Rp5748
(dp5749
g21
F0.5
sg22
I45
sg23
g0
(g24
g25
(dp5750
I00
I39
sI01
I6
stp5751
Rp5752
(dp5753
g22
I45
sg30
Nsg31
Nsg32
Nsbsg33
I3
sg34
F46.5
sbs(g10
g2071
tp5754
g0
(g17
g2
Ntp5755
Rp5756
(dp5757
g21
F0.5
sg22
I45
sg23
g0
(g24
g25
(dp5758
I00
I44
sI01
I1
stp5759
Rp5760
(dp5761
g22
I45
sg30
Nsg31
Nsg32
Nsbsg33
I3
sg34
F46.5
sbs(g10
g5601
tp5762
g0
(g17
g2
Ntp5763
Rp5764
(dp5765
g21
F0.5
sg22
I45
sg23
g0
(g24
g25
(dp5766
I00
I38
sI01
I7
stp5767
Rp5768
(dp5769
g22
I45
sg30
Nsg31
Nsg32
Nsbsg33
I3
sg34
F46.5
sbs(g10
g1272
tp5770
g0
(g17
g2
Ntp5771
Rp5772
(dp5773
g21
F0.5
sg22
I45
sg23
g0
(g24
g25
(dp5774
I00
I44
sI01
I1
stp5775
Rp5776
(dp5777
g22
I45
sg30
Nsg31
Nsg32
Nsbsg33
I3
sg34
F46.5
sbs(g9
g3417
tp5778
g0
(g17
g2
Ntp5779
Rp5780
(dp5781
g21
F0.5
sg22
I45
sg23
g0
(g24
g25
(dp5782
I00
I45
stp5783
Rp5784
(dp5785
g22
I45
sg30
Nsg31
Nsg32
Nsbsg33
I3
sg34
F46.5
sbs(g9
g1451
tp5786
g0
(g17
g2
Ntp5787
Rp5788
(dp5789
g21
F0.5
sg22
I45
sg23
g0
(g24
g25
(dp5790
I00
I30
sI01
I15
stp5791
Rp5792
(dp5793
g22
I45
sg30
Nsg31
Nsg32
Nsbsg33
I3
sg34
F46.5
sbs(g12
g1390
tp5794
g0
(g17
g2
Ntp5795
Rp5796
(dp5797
g21
F0.5
sg22
I45
sg23
g0
(g24
g25
(dp5798
I00
I15
sI01
I30
stp5799
Rp5800
(dp5801
g22
I45
sg30
Nsg31
Nsg32
Nsbsg33
I3
sg34
F46.5
sbs(g10
g1263
tp5802
g0
(g17
g2
Ntp5803
Rp5804
(dp5805
g21
F0.5
sg22
I45
sg23
g0
(g24
g25
(dp5806
I00
I25
sI01
I20
stp5807
Rp5808
(dp5809
g22
I45
sg30
Nsg31
Nsg32
Nsbsg33
I3
sg34
F46.5
sbs(g11
g5601
tp5810
g0
(g17
g2
Ntp5811
Rp5812
(dp5813
g21
F0.5
sg22
I45
sg23
g0
(g24
g25
(dp5814
I00
I42
sI01
I3
stp5815
Rp5816
(dp5817
g22
I45
sg30
Nsg31
Nsg32
Nsbsg33
I3
sg34
F46.5
sbs(g9
g2565
tp5818
g0
(g17
g2
Ntp5819
Rp5820
(dp5821
g21
F0.5
sg22
I45
sg23
g0
(g24
g25
(dp5822
I00
I45
stp5823
Rp5824
(dp5825
g22
I45
sg30
Nsg31
Nsg32
Nsbsg33
I3
sg34
F46.5
sbs(g11
g2747
tp5826
g0
(g17
g2
Ntp5827
Rp5828
(dp5829
g21
F0.5
sg22
I45
sg23
g0
(g24
g25
(dp5830
I00
I45
stp5831
Rp5832
(dp5833
g22
I45
sg30
Nsg31
Nsg32
Nsbsg33
I3
sg34
F46.5
sbs(g10
g2993
tp5834
g0
(g17
g2
Ntp5835
Rp5836
(dp5837
g21
F0.5
sg22
I45
sg23
g0
(g24
g25
(dp5838
I00
I43
sI01
I2
stp5839
Rp5840
(dp5841
g22
I45
sg30
Nsg31
Nsg32
Nsbsg33
I3
sg34
F46.5
sbs(g8
g125
tp5842
g0
(g17
g2
Ntp5843
Rp5844
(dp5845
g21
F0.5
sg22
I45
sg23
g0
(g24
g25
(dp5846
I00
I45
stp5847
Rp5848
(dp5849
g22
I45
sg30
Nsg31
Nsg32
Nsbsg33
I3
sg34
F46.5
sbs(g8
g3099
tp5850
g0
(g17
g2
Ntp5851
Rp5852
(dp5853
g21
F0.5
sg22
I45
sg23
g0
(g24
g25
(dp5854
I00
I38
sI01
I7
stp5855
Rp5856
(dp5857
g22
I45
sg30
Nsg31
Nsg32
Nsbsg33
I3
sg34
F46.5
sbs(g12
g472
tp5858
g0
(g17
g2
Ntp5859
Rp5860
(dp5861
g21
F0.5
sg22
I45
sg23
g0
(g24
g25
(dp5862
I00
I22
sI01
I23
stp5863
Rp5864
(dp5865
g22
I45
sg30
Nsg31
Nsg32
Nsbsg33
I3
sg34
F46.5
sbs(g9
g870
tp5866
g0
(g17
g2
Ntp5867
Rp5868
(dp5869
g21
F0.5
sg22
I45
sg23
g0
(g24
g25
(dp5870
I00
I38
sI01
I7
stp5871
Rp5872
(dp5873
g22
I45
sg30
Nsg31
Nsg32
Nsbsg33
I3
sg34
F46.5
sbs(g11
g1348
tp5874
g0
(g17
g2
Ntp5875
Rp5876
(dp5877
g21
F0.5
sg22
I45
sg23
g0
(g24
g25
(dp5878
I00
I45
stp5879
Rp5880
(dp5881
g22
I45
sg30
Nsg31
Nsg32
Nsbsg33
I3
sg34
F46.5
sbs(g8
g1071
tp5882
g0
(g17
g2
Ntp5883
Rp5884
(dp5885
g21
F0.5
sg22
I45
sg23
g0
(g24
g25
(dp5886
I00
I45
stp5887
Rp5888
(dp5889
g22
I45
sg30
Nsg31
Nsg32
Nsbsg33
I3
sg34
F46.5
sbs(g9
g1589
tp5890
g0
(g17
g2
Ntp5891
Rp5892
(dp5893
g21
F0.5
sg22
I45
sg23
g0
(g24
g25
(dp5894
I00
I42
sI01
I3
stp5895
Rp5896
(dp5897
g22
I45
sg30
Nsg31
Nsg32
Nsbsg33
I3
sg34
F46.5
sbs(g9
g637
tp5898
g0
(g17
g2
Ntp5899
Rp5900
(dp5901
g21
F0.5
sg22
I45
sg23
g0
(g24
g25
(dp5902
I00
I40
sI01
I5
stp5903
Rp5904
(dp5905
g22
I45
sg30
Nsg31
Nsg32
Nsbsg33
I3
sg34
F46.5
sbs(g8
g107
tp5906
g0
(g17
g2
Ntp5907
Rp5908
(dp5909
g21
F0.5
sg22
I45
sg23
g0
(g24
g25
(dp5910
I00
I29
sI01
I16
stp5911
Rp5912
(dp5913
g22
I45
sg30
Nsg31
Nsg32
Nsbsg33
I3
sg34
F46.5
sbs(g12
g427
tp5914
g0
(g17
g2
Ntp5915
Rp5916
(dp5917
g21
F0.5
sg22
I45
sg23
g0
(g24
g25
(dp5918
I00
I44
sI01
I1
stp5919
Rp5920
(dp5921
g22
I45
sg30
Nsg31
Nsg32
Nsbsg33
I3
sg34
F46.5
sbs(g12
g1106
tp5922
g0
(g17
g2
Ntp5923
Rp5924
(dp5925
g21
F0.5
sg22
I45
sg23
g0
(g24
g25
(dp5926
I00
I23
sI01
I22
stp5927
Rp5928
(dp5929
g22
I45
sg30
Nsg31
Nsg32
Nsbsg33
I3
sg34
F46.5
sbs(g9
g1767
tp5930
g0
(g17
g2
Ntp5931
Rp5932
(dp5933
g21
F0.5
sg22
I45
sg23
g0
(g24
g25
(dp5934
I00
I9
sI01
I36
stp5935
Rp5936
(dp5937
g22
I45
sg30
Nsg31
Nsg32
Nsbsg33
I3
sg34
F46.5
sbs(g12
g2927
tp5938
g0
(g17
g2
Ntp5939
Rp5940
(dp5941
g21
F0.5
sg22
I45
sg23
g0
(g24
g25
(dp5942
I00
I44
sI01
I1
stp5943
Rp5944
(dp5945
g22
I45
sg30
Nsg31
Nsg32
Nsbsg33
I3
sg34
F46.5
sbs(g12
g320
tp5946
g0
(g17
g2
Ntp5947
Rp5948
(dp5949
g21
F0.5
sg22
I45
sg23
g0
(g24
g25
(dp5950
I00
I27
sI01
I18
stp5951
Rp5952
(dp5953
g22
I45
sg30
Nsg31
Nsg32
Nsbsg33
I3
sg34
F46.5
sbs(g9
g2366
tp5954
g0
(g17
g2
Ntp5955
Rp5956
(dp5957
g21
F0.5
sg22
I45
sg23
g0
(g24
g25
(dp5958
I00
I43
sI01
I2
stp5959
Rp5960
(dp5961
g22
I45
sg30
Nsg31
Nsg32
Nsbsg33
I3
sg34
F46.5
sbs(g9
g1724
tp5962
g0
(g17
g2
Ntp5963
Rp5964
(dp5965
g21
F0.5
sg22
I45
sg23
g0
(g24
g25
(dp5966
I00
I45
stp5967
Rp5968
(dp5969
g22
I45
sg30
Nsg31
Nsg32
Nsbsg33
I3
sg34
F46.5
sbs(g9
g3572
tp5970
g0
(g17
g2
Ntp5971
Rp5972
(dp5973
g21
F0.5
sg22
I45
sg23
g0
(g24
g25
(dp5974
I00
I38
sI01
I7
stp5975
Rp5976
(dp5977
g22
I45
sg30
Nsg31
Nsg32
Nsbsg33
I3
sg34
F46.5
sbs(g9
g2634
tp5978
g0
(g17
g2
Ntp5979
Rp5980
(dp5981
g21
F0.5
sg22
I45
sg23
g0
(g24
g25
(dp5982
I00
I45
stp5983
Rp5984
(dp5985
g22
I45
sg30
Nsg31
Nsg32
Nsbsg33
I3
sg34
F46.5
sbs(g9
g365
tp5986
g0
(g17
g2
Ntp5987
Rp5988
(dp5989
g21
F0.5
sg22
I45
sg23
g0
(g24
g25
(dp5990
I00
I34
sI01
I11
stp5991
Rp5992
(dp5993
g22
I45
sg30
Nsg31
Nsg32
Nsbsg33
I3
sg34
F46.5
sbs(g11
g2198
tp5994
g0
(g17
g2
Ntp5995
Rp5996
(dp5997
g21
F0.5
sg22
I45
sg23
g0
(g24
g25
(dp5998
I00
I45
stp5999
Rp6000
(dp6001
g22
I45
sg30
Nsg31
Nsg32
Nsbsg33
I3
sg34
F46.5
sbs(g8
g1623
tp6002
g0
(g17
g2
Ntp6003
Rp6004
(dp6005
g21
F0.5
sg22
I45
sg23
g0
(g24
g25
(dp6006
I00
I29
sI01
I16
stp6007
Rp6008
(dp6009
g22
I45
sg30
Nsg31
Nsg32
Nsbsg33
I3
sg34
F46.5
sbs(g9
g3336
tp6010
g0
(g17
g2
Ntp6011
Rp6012
(dp6013
g21
F0.5
sg22
I45
sg23
g0
(g24
g25
(dp6014
I00
I42
sI01
I3
stp6015
Rp6016
(dp6017
g22
I45
sg30
Nsg31
Nsg32
Nsbsg33
I3
sg34
F46.5
sbs(g8
g4743
tp6018
g0
(g17
g2
Ntp6019
Rp6020
(dp6021
g21
F0.5
sg22
I45
sg23
g0
(g24
g25
(dp6022
I00
I39
sI01
I6
stp6023
Rp6024
(dp6025
g22
I45
sg30
Nsg31
Nsg32
Nsbsg33
I3
sg34
F46.5
sbs(g12
g620
tp6026
g0
(g17
g2
Ntp6027
Rp6028
(dp6029
g21
F0.5
sg22
I45
sg23
g0
(g24
g25
(dp6030
I00
I45
stp6031
Rp6032
(dp6033
g22
I45
sg30
Nsg31
Nsg32
Nsbsg33
I3
sg34
F46.5
sbs(g8
g2104
tp6034
g0
(g17
g2
Ntp6035
Rp6036
(dp6037
g21
F0.5
sg22
I45
sg23
g0
(g24
g25
(dp6038
I00
I45
stp6039
Rp6040
(dp6041
g22
I45
sg30
Nsg31
Nsg32
Nsbsg33
I3
sg34
F46.5
sbs(g12
g1665
tp6042
g0
(g17
g2
Ntp6043
Rp6044
(dp6045
g21
F0.5
sg22
I45
sg23
g0
(g24
g25
(dp6046
I00
I45
stp6047
Rp6048
(dp6049
g22
I45
sg30
Nsg31
Nsg32
Nsbsg33
I3
sg34
F46.5
sbs(g12
g2282
tp6050
g0
(g17
g2
Ntp6051
Rp6052
(dp6053
g21
F0.5
sg22
I45
sg23
g0
(g24
g25
(dp6054
I00
I20
sI01
I25
stp6055
Rp6056
(dp6057
g22
I45
sg30
Nsg31
Nsg32
Nsbsg33
I3
sg34
F46.5
sbs(g8
g1691
tp6058
g0
(g17
g2
Ntp6059
Rp6060
(dp6061
g21
F0.5
sg22
I45
sg23
g0
(g24
g25
(dp6062
I00
I45
stp6063
Rp6064
(dp6065
g22
I45
sg30
Nsg31
Nsg32
Nsbsg33
I3
sg34
F46.5
sbs(g8
g594
tp6066
g0
(g17
g2
Ntp6067
Rp6068
(dp6069
g21
F0.5
sg22
I45
sg23
g0
(g24
g25
(dp6070
I00
I45
stp6071
Rp6072
(dp6073
g22
I45
sg30
Nsg31
Nsg32
Nsbsg33
I3
sg34
F46.5
sbs(g11
g2910
tp6074
g0
(g17
g2
Ntp6075
Rp6076
(dp6077
g21
F0.5
sg22
I45
sg23
g0
(g24
g25
(dp6078
I00
I44
sI01
I1
stp6079
Rp6080
(dp6081
g22
I45
sg30
Nsg31
Nsg32
Nsbsg33
I3
sg34
F46.5
sbs(g12
g2054
tp6082
g0
(g17
g2
Ntp6083
Rp6084
(dp6085
g21
F0.5
sg22
I45
sg23
g0
(g24
g25
(dp6086
I00
I16
sI01
I29
stp6087
Rp6088
(dp6089
g22
I45
sg30
Nsg31
Nsg32
Nsbsg33
I3
sg34
F46.5
sbs(g11
g2147
tp6090
g0
(g17
g2
Ntp6091
Rp6092
(dp6093
g21
F0.5
sg22
I45
sg23
g0
(g24
g25
(dp6094
I00
I44
sI01
I1
stp6095
Rp6096
(dp6097
g22
I45
sg30
Nsg31
Nsg32
Nsbsg33
I3
sg34
F46.5
sbs(g9
g1298
tp6098
g0
(g17
g2
Ntp6099
Rp6100
(dp6101
g21
F0.5
sg22
I45
sg23
g0
(g24
g25
(dp6102
I00
I43
sI01
I2
stp6103
Rp6104
(dp6105
g22
I45
sg30
Nsg31
Nsg32
Nsbsg33
I3
sg34
F46.5
sbs(g11
g71
tp6106
g0
(g17
g2
Ntp6107
Rp6108
(dp6109
g21
F0.5
sg22
I45
sg23
g0
(g24
g25
(dp6110
I00
I45
stp6111
Rp6112
(dp6113
g22
I45
sg30
Nsg31
Nsg32
Nsbsg33
I3
sg34
F46.5
sbs(g11
g1818
tp6114
g0
(g17
g2
Ntp6115
Rp6116
(dp6117
g21
F0.5
sg22
I45
sg23
g0
(g24
g25
(dp6118
I00
I32
sI01
I13
stp6119
Rp6120
(dp6121
g22
I45
sg30
Nsg31
Nsg32
Nsbsg33
I3
sg34
F46.5
sbs(g9
g427
tp6122
g0
(g17
g2
Ntp6123
Rp6124
(dp6125
g21
F0.5
sg22
I45
sg23
g0
(g24
g25
(dp6126
I00
I43
sI01
I2
stp6127
Rp6128
(dp6129
g22
I45
sg30
Nsg31
Nsg32
Nsbsg33
I3
sg34
F46.5
sbs(g12
g498
tp6130
g0
(g17
g2
Ntp6131
Rp6132
(dp6133
g21
F0.5
sg22
I45
sg23
g0
(g24
g25
(dp6134
I00
I45
stp6135
Rp6136
(dp6137
g22
I45
sg30
Nsg31
Nsg32
Nsbsg33
I3
sg34
F46.5
sbs(g11
g392
tp6138
g0
(g17
g2
Ntp6139
Rp6140
(dp6141
g21
F0.5
sg22
I45
sg23
g0
(g24
g25
(dp6142
I00
I42
sI01
I3
stp6143
Rp6144
(dp6145
g22
I45
sg30
Nsg31
Nsg32
Nsbsg33
I3
sg34
F46.5
sbs(g11
g409
tp6146
g0
(g17
g2
Ntp6147
Rp6148
(dp6149
g21
F0.5
sg22
I45
sg23
g0
(g24
g25
(dp6150
I00
I18
sI01
I27
stp6151
Rp6152
(dp6153
g22
I45
sg30
Nsg31
Nsg32
Nsbsg33
I3
sg34
F46.5
sbs(g9
g534
tp6154
g0
(g17
g2
Ntp6155
Rp6156
(dp6157
g21
F0.5
sg22
I45
sg23
g0
(g24
g25
(dp6158
I00
I44
sI01
I1
stp6159
Rp6160
(dp6161
g22
I45
sg30
Nsg31
Nsg32
Nsbsg33
I3
sg34
F46.5
sbs(g10
g2231
tp6162
g0
(g17
g2
Ntp6163
Rp6164
(dp6165
g21
F0.5
sg22
I45
sg23
g0
(g24
g25
(dp6166
I00
I40
sI01
I5
stp6167
Rp6168
(dp6169
g22
I45
sg30
Nsg31
Nsg32
Nsbsg33
I3
sg34
F46.5
sbs(g8
g1044
tp6170
g0
(g17
g2
Ntp6171
Rp6172
(dp6173
g21
F0.5
sg22
I45
sg23
g0
(g24
g25
(dp6174
I00
I36
sI01
I9
stp6175
Rp6176
(dp6177
g22
I45
sg30
Nsg31
Nsg32
Nsbsg33
I3
sg34
F46.5
sbs(g12
g991
tp6178
g0
(g17
g2
Ntp6179
Rp6180
(dp6181
g21
F0.5
sg22
I45
sg23
g0
(g24
g25
(dp6182
I00
I42
sI01
I3
stp6183
Rp6184
(dp6185
g22
I45
sg30
Nsg31
Nsg32
Nsbsg33
I3
sg34
F46.5
sbs(g10
g1159
tp6186
g0
(g17
g2
Ntp6187
Rp6188
(dp6189
g21
F0.5
sg22
I45
sg23
g0
(g24
g25
(dp6190
I00
I26
sI01
I19
stp6191
Rp6192
(dp6193
g22
I45
sg30
Nsg31
Nsg32
Nsbsg33
I3
sg34
F46.5
sbs(g9
g3099
tp6194
g0
(g17
g2
Ntp6195
Rp6196
(dp6197
g21
F0.5
sg22
I45
sg23
g0
(g24
g25
(dp6198
I00
I16
sI01
I29
stp6199
Rp6200
(dp6201
g22
I45
sg30
Nsg31
Nsg32
Nsbsg33
I3
sg34
F46.5
sbs(g8
g187
tp6202
g0
(g17
g2
Ntp6203
Rp6204
(dp6205
g21
F0.5
sg22
I45
sg23
g0
(g24
g25
(dp6206
I00
I45
stp6207
Rp6208
(dp6209
g22
I45
sg30
Nsg31
Nsg32
Nsbsg33
I3
sg34
F46.5
sbs(g10
g2483
tp6210
g0
(g17
g2
Ntp6211
Rp6212
(dp6213
g21
F0.5
sg22
I45
sg23
g0
(g24
g25
(dp6214
I00
I44
sI01
I1
stp6215
Rp6216
(dp6217
g22
I45
sg30
Nsg31
Nsg32
Nsbsg33
I3
sg34
F46.5
sbs(g9
g2976
tp6218
g0
(g17
g2
Ntp6219
Rp6220
(dp6221
g21
F0.5
sg22
I45
sg23
g0
(g24
g25
(dp6222
I00
I45
stp6223
Rp6224
(dp6225
g22
I45
sg30
Nsg31
Nsg32
Nsbsg33
I3
sg34
F46.5
sbs(g12
g3336
tp6226
g0
(g17
g2
Ntp6227
Rp6228
(dp6229
g21
F0.5
sg22
I45
sg23
g0
(g24
g25
(dp6230
I00
I37
sI01
I8
stp6231
Rp6232
(dp6233
g22
I45
sg30
Nsg31
Nsg32
Nsbsg33
I3
sg34
F46.5
sbs(g10
g1691
tp6234
g0
(g17
g2
Ntp6235
Rp6236
(dp6237
g21
F0.5
sg22
I45
sg23
g0
(g24
g25
(dp6238
I00
I45
stp6239
Rp6240
(dp6241
g22
I45
sg30
Nsg31
Nsg32
Nsbsg33
I3
sg34
F46.5
sbs(g9
g3866
tp6242
g0
(g17
g2
Ntp6243
Rp6244
(dp6245
g21
F0.5
sg22
I45
sg23
g0
(g24
g25
(dp6246
I00
I45
stp6247
Rp6248
(dp6249
g22
I45
sg30
Nsg31
Nsg32
Nsbsg33
I3
sg34
F46.5
sbs(g9
g3783
tp6250
g0
(g17
g2
Ntp6251
Rp6252
(dp6253
g21
F0.5
sg22
I45
sg23
g0
(g24
g25
(dp6254
I00
I22
sI01
I23
stp6255
Rp6256
(dp6257
g22
I45
sg30
Nsg31
Nsg32
Nsbsg33
I3
sg34
F46.5
sbs(g11
g827
tp6258
g0
(g17
g2
Ntp6259
Rp6260
(dp6261
g21
F0.5
sg22
I45
sg23
g0
(g24
g25
(dp6262
I00
I40
sI01
I5
stp6263
Rp6264
(dp6265
g22
I45
sg30
Nsg31
Nsg32
Nsbsg33
I3
sg34
F46.5
sbs(g9
g1750
tp6266
g0
(g17
g2
Ntp6267
Rp6268
(dp6269
g21
F0.5
sg22
I45
sg23
g0
(g24
g25
(dp6270
I00
I18
sI01
I27
stp6271
Rp6272
(dp6273
g22
I45
sg30
Nsg31
Nsg32
Nsbsg33
I3
sg34
F46.5
sbs(g9
g1665
tp6274
g0
(g17
g2
Ntp6275
Rp6276
(dp6277
g21
F0.5
sg22
I45
sg23
g0
(g24
g25
(dp6278
I00
I45
stp6279
Rp6280
(dp6281
g22
I45
sg30
Nsg31
Nsg32
Nsbsg33
I3
sg34
F46.5
sbs(g12
g2147
tp6282
g0
(g17
g2
Ntp6283
Rp6284
(dp6285
g21
F0.5
sg22
I45
sg23
g0
(g24
g25
(dp6286
I00
I35
sI01
I10
stp6287
Rp6288
(dp6289
g22
I45
sg30
Nsg31
Nsg32
Nsbsg33
I3
sg34
F46.5
sbs(g10
g5208
tp6290
g0
(g17
g2
Ntp6291
Rp6292
(dp6293
g21
F0.5
sg22
I45
sg23
g0
(g24
g25
(dp6294
I00
I45
stp6295
Rp6296
(dp6297
g22
I45
sg30
Nsg31
Nsg32
Nsbsg33
I3
sg34
F46.5
sbs(g12
g1818
tp6298
g0
(g17
g2
Ntp6299
Rp6300
(dp6301
g21
F0.5
sg22
I45
sg23
g0
(g24
g25
(dp6302
I00
I35
sI01
I10
stp6303
Rp6304
(dp6305
g22
I45
sg30
Nsg31
Nsg32
Nsbsg33
I3
sg34
F46.5
sbs(g8
g436
tp6306
g0
(g17
g2
Ntp6307
Rp6308
(dp6309
g21
F0.5
sg22
I45
sg23
g0
(g24
g25
(dp6310
I00
I40
sI01
I5
stp6311
Rp6312
(dp6313
g22
I45
sg30
Nsg31
Nsg32
Nsbsg33
I3
sg34
F46.5
sbs(g9
g594
tp6314
g0
(g17
g2
Ntp6315
Rp6316
(dp6317
g21
F0.5
sg22
I45
sg23
g0
(g24
g25
(dp6318
I00
I42
sI01
I3
stp6319
Rp6320
(dp6321
g22
I45
sg30
Nsg31
Nsg32
Nsbsg33
I3
sg34
F46.5
sbs(g8
g5208
tp6322
g0
(g17
g2
Ntp6323
Rp6324
(dp6325
g21
F0.5
sg22
I45
sg23
g0
(g24
g25
(dp6326
I00
I45
stp6327
Rp6328
(dp6329
g22
I45
sg30
Nsg31
Nsg32
Nsbsg33
I3
sg34
F46.5
sbs(g9
S'skip:(the,the,of)>0'
p6330
tp6331
g0
(g17
g2
Ntp6332
Rp6333
(dp6334
g21
F0.5
sg22
I45
sg23
g0
(g24
g25
(dp6335
I00
I38
sI01
I7
stp6336
Rp6337
(dp6338
g22
I45
sg30
Nsg31
Nsg32
Nsbsg33
I3
sg34
F46.5
sbs(g10
g784
tp6339
g0
(g17
g2
Ntp6340
Rp6341
(dp6342
g21
F0.5
sg22
I45
sg23
g0
(g24
g25
(dp6343
I00
I15
sI01
I30
stp6344
Rp6345
(dp6346
g22
I45
sg30
Nsg31
Nsg32
Nsbsg33
I3
sg34
F46.5
sbs(g11
g560
tp6347
g0
(g17
g2
Ntp6348
Rp6349
(dp6350
g21
F0.5
sg22
I45
sg23
g0
(g24
g25
(dp6351
I00
I27
sI01
I18
stp6352
Rp6353
(dp6354
g22
I45
sg30
Nsg31
Nsg32
Nsbsg33
I3
sg34
F46.5
sbs(g9
g767
tp6355
g0
(g17
g2
Ntp6356
Rp6357
(dp6358
g21
F0.5
sg22
I45
sg23
g0
(g24
g25
(dp6359
I00
I43
sI01
I2
stp6360
Rp6361
(dp6362
g22
I45
sg30
Nsg31
Nsg32
Nsbsg33
I3
sg34
F46.5
sbs(g12
g1741
tp6363
g0
(g17
g2
Ntp6364
Rp6365
(dp6366
g21
F0.5
sg22
I45
sg23
g0
(g24
g25
(dp6367
I00
I32
sI01
I13
stp6368
Rp6369
(dp6370
g22
I45
sg30
Nsg31
Nsg32
Nsbsg33
I3
sg34
F46.5
sbs(g10
g383
tp6371
g0
(g17
g2
Ntp6372
Rp6373
(dp6374
g21
F0.5
sg22
I45
sg23
g0
(g24
g25
(dp6375
I00
I39
sI01
I6
stp6376
Rp6377
(dp6378
g22
I45
sg30
Nsg31
Nsg32
Nsbsg33
I3
sg34
F46.5
sbs(g10
g1546
tp6379
g0
(g17
g2
Ntp6380
Rp6381
(dp6382
g21
F0.5
sg22
I45
sg23
g0
(g24
g25
(dp6383
I00
I20
sI01
I25
stp6384
Rp6385
(dp6386
g22
I45
sg30
Nsg31
Nsg32
Nsbsg33
I3
sg34
F46.5
sbs(g10
g240
tp6387
g0
(g17
g2
Ntp6388
Rp6389
(dp6390
g21
F0.5
sg22
I45
sg23
g0
(g24
g25
(dp6391
I00
I45
stp6392
Rp6393
(dp6394
g22
I45
sg30
Nsg31
Nsg32
Nsbsg33
I3
sg34
F46.5
sbs(g10
g2383
tp6395
g0
(g17
g2
Ntp6396
Rp6397
(dp6398
g21
F0.5
sg22
I45
sg23
g0
(g24
g25
(dp6399
I00
I45
stp6400
Rp6401
(dp6402
g22
I45
sg30
Nsg31
Nsg32
Nsbsg33
I3
sg34
F46.5
sbs(g12
g4462
tp6403
g0
(g17
g2
Ntp6404
Rp6405
(dp6406
g21
F0.5
sg22
I45
sg23
g0
(g24
g25
(dp6407
I00
I43
sI01
I2
stp6408
Rp6409
(dp6410
g22
I45
sg30
Nsg31
Nsg32
Nsbsg33
I3
sg34
F46.5
sbs(g9
g2829
tp6411
g0
(g17
g2
Ntp6412
Rp6413
(dp6414
g21
F0.5
sg22
I45
sg23
g0
(g24
g25
(dp6415
I00
I26
sI01
I19
stp6416
Rp6417
(dp6418
g22
I45
sg30
Nsg31
Nsg32
Nsbsg33
I3
sg34
F46.5
sbs(g8
g2164
tp6419
g0
(g17
g2
Ntp6420
Rp6421
(dp6422
g21
F0.5
sg22
I45
sg23
g0
(g24
g25
(dp6423
I00
I24
sI01
I21
stp6424
Rp6425
(dp6426
g22
I45
sg30
Nsg31
Nsg32
Nsbsg33
I3
sg34
F46.5
sbs(g9
g2256
tp6427
g0
(g17
g2
Ntp6428
Rp6429
(dp6430
g21
F0.5
sg22
I45
sg23
g0
(g24
g25
(dp6431
I00
I45
stp6432
Rp6433
(dp6434
g22
I45
sg30
Nsg31
Nsg32
Nsbsg33
I3
sg34
F46.5
sbs(g8
g2316
tp6435
g0
(g17
g2
Ntp6436
Rp6437
(dp6438
g21
F0.5
sg22
I45
sg23
g0
(g24
g25
(dp6439
I00
I45
stp6440
Rp6441
(dp6442
g22
I45
sg30
Nsg31
Nsg32
Nsbsg33
I3
sg34
F46.5
sbs(g9
g1793
tp6443
g0
(g17
g2
Ntp6444
Rp6445
(dp6446
g21
F0.5
sg22
I45
sg23
g0
(g24
g25
(dp6447
I00
I20
sI01
I25
stp6448
Rp6449
(dp6450
g22
I45
sg30
Nsg31
Nsg32
Nsbsg33
I3
sg34
F46.5
sbs(g9
g2910
tp6451
g0
(g17
g2
Ntp6452
Rp6453
(dp6454
g21
F0.5
sg22
I45
sg23
g0
(g24
g25
(dp6455
I00
I31
sI01
I14
stp6456
Rp6457
(dp6458
g22
I45
sg30
Nsg31
Nsg32
Nsbsg33
I3
sg34
F46.5
sbs(g12
g1000
tp6459
g0
(g17
g2
Ntp6460
Rp6461
(dp6462
g21
F0.5
sg22
I45
sg23
g0
(g24
g25
(dp6463
I00
I45
stp6464
Rp6465
(dp6466
g22
I45
sg30
Nsg31
Nsg32
Nsbsg33
I3
sg34
F46.5
sbs(g9
g1460
tp6467
g0
(g17
g2
Ntp6468
Rp6469
(dp6470
g21
F0.5
sg22
I45
sg23
g0
(g24
g25
(dp6471
I00
I45
stp6472
Rp6473
(dp6474
g22
I45
sg30
Nsg31
Nsg32
Nsbsg33
I3
sg34
F46.5
sbs(g12
g2456
tp6475
g0
(g17
g2
Ntp6476
Rp6477
(dp6478
g21
F0.5
sg22
I45
sg23
g0
(g24
g25
(dp6479
I00
I45
stp6480
Rp6481
(dp6482
g22
I45
sg30
Nsg31
Nsg32
Nsbsg33
I3
sg34
F46.5
sbs(g10
g3866
tp6483
g0
(g17
g2
Ntp6484
Rp6485
(dp6486
g21
F0.5
sg22
I45
sg23
g0
(g24
g25
(dp6487
I00
I45
stp6488
Rp6489
(dp6490
g22
I45
sg30
Nsg31
Nsg32
Nsbsg33
I3
sg34
F46.5
sbs(g8
g249
tp6491
g0
(g17
g2
Ntp6492
Rp6493
(dp6494
g21
F0.5
sg22
I45
sg23
g0
(g24
g25
(dp6495
I00
I34
sI01
I11
stp6496
Rp6497
(dp6498
g22
I45
sg30
Nsg31
Nsg32
Nsbsg33
I3
sg34
F46.5
sbs(g11
g383
tp6499
g0
(g17
g2
Ntp6500
Rp6501
(dp6502
g21
F0.5
sg22
I45
sg23
g0
(g24
g25
(dp6503
I00
I45
stp6504
Rp6505
(dp6506
g22
I45
sg30
Nsg31
Nsg32
Nsbsg33
I3
sg34
F46.5
sbs(g9
g1132
tp6507
g0
(g17
g2
Ntp6508
Rp6509
(dp6510
g21
F0.5
sg22
I45
sg23
g0
(g24
g25
(dp6511
I00
I45
stp6512
Rp6513
(dp6514
g22
I45
sg30
Nsg31
Nsg32
Nsbsg33
I3
sg34
F46.5
sbs(g8
g3327
tp6515
g0
(g17
g2
Ntp6516
Rp6517
(dp6518
g21
F0.5
sg22
I45
sg23
g0
(g24
g25
(dp6519
I00
I45
stp6520
Rp6521
(dp6522
g22
I45
sg30
Nsg31
Nsg32
Nsbsg33
I3
sg34
F46.5
sbs(g9
g374
tp6523
g0
(g17
g2
Ntp6524
Rp6525
(dp6526
g21
F0.5
sg22
I45
sg23
g0
(g24
g25
(dp6527
I00
I43
sI01
I2
stp6528
Rp6529
(dp6530
g22
I45
sg30
Nsg31
Nsg32
Nsbsg33
I3
sg34
F46.5
sbs(g9
g2820
tp6531
g0
(g17
g2
Ntp6532
Rp6533
(dp6534
g21
F0.5
sg22
I45
sg23
g0
(g24
g25
(dp6535
I00
I45
stp6536
Rp6537
(dp6538
g22
I45
sg30
Nsg31
Nsg32
Nsbsg33
I3
sg34
F46.5
sbs(g9
g2231
tp6539
g0
(g17
g2
Ntp6540
Rp6541
(dp6542
g21
F0.5
sg22
I45
sg23
g0
(g24
g25
(dp6543
I00
I45
stp6544
Rp6545
(dp6546
g22
I45
sg30
Nsg31
Nsg32
Nsbsg33
I3
sg34
F46.5
sbs(g9
g5601
tp6547
g0
(g17
g2
Ntp6548
Rp6549
(dp6550
g21
F0.5
sg22
I45
sg23
g0
(g24
g25
(dp6551
I00
I25
sI01
I20
stp6552
Rp6553
(dp6554
g22
I45
sg30
Nsg31
Nsg32
Nsbsg33
I3
sg34
F46.5
sbs(g10
g1469
tp6555
g0
(g17
g2
Ntp6556
Rp6557
(dp6558
g21
F0.5
sg22
I45
sg23
g0
(g24
g25
(dp6559
I00
I36
sI01
I9
stp6560
Rp6561
(dp6562
g22
I45
sg30
Nsg31
Nsg32
Nsbsg33
I3
sg34
F46.5
sbs(g10
g1348
tp6563
g0
(g17
g2
Ntp6564
Rp6565
(dp6566
g21
F0.5
sg22
I45
sg23
g0
(g24
g25
(dp6567
I00
I45
stp6568
Rp6569
(dp6570
g22
I45
sg30
Nsg31
Nsg32
Nsbsg33
I3
sg34
F46.5
sbs(g8
g3132
tp6571
g0
(g17
g2
Ntp6572
Rp6573
(dp6574
g21
F0.5
sg22
I45
sg23
g0
(g24
g25
(dp6575
I00
I40
sI01
I5
stp6576
Rp6577
(dp6578
g22
I45
sg30
Nsg31
Nsg32
Nsbsg33
I3
sg34
F46.5
sbs(g12
g231
tp6579
g0
(g17
g2
Ntp6580
Rp6581
(dp6582
g21
F0.5
sg22
I45
sg23
g0
(g24
g25
(dp6583
I00
I37
sI01
I8
stp6584
Rp6585
(dp6586
g22
I45
sg30
Nsg31
Nsg32
Nsbsg33
I3
sg34
F46.5
sbs(g8
g3816
tp6587
g0
(g17
g2
Ntp6588
Rp6589
(dp6590
g21
F0.5
sg22
I45
sg23
g0
(g24
g25
(dp6591
I00
I40
sI01
I5
stp6592
Rp6593
(dp6594
g22
I45
sg30
Nsg31
Nsg32
Nsbsg33
I3
sg34
F46.5
sbs(g8
g302
tp6595
g0
(g17
g2
Ntp6596
Rp6597
(dp6598
g21
F0.5
sg22
I45
sg23
g0
(g24
g25
(dp6599
I00
I45
stp6600
Rp6601
(dp6602
g22
I45
sg30
Nsg31
Nsg32
Nsbsg33
I3
sg34
F46.5
sbs(g12
g152
tp6603
g0
(g17
g2
Ntp6604
Rp6605
(dp6606
g21
F0.5
sg22
I45
sg23
g0
(g24
g25
(dp6607
I00
I13
sI01
I32
stp6608
Rp6609
(dp6610
g22
I45
sg30
Nsg31
Nsg32
Nsbsg33
I3
sg34
F46.5
sbs(g11
g1150
tp6611
g0
(g17
g2
Ntp6612
Rp6613
(dp6614
g21
F0.5
sg22
I45
sg23
g0
(g24
g25
(dp6615
I00
I45
stp6616
Rp6617
(dp6618
g22
I45
sg30
Nsg31
Nsg32
Nsbsg33
I3
sg34
F46.5
sbs(g10
g810
tp6619
g0
(g17
g2
Ntp6620
Rp6621
(dp6622
g21
F0.5
sg22
I45
sg23
g0
(g24
g25
(dp6623
I00
I45
stp6624
Rp6625
(dp6626
g22
I45
sg30
Nsg31
Nsg32
Nsbsg33
I3
sg34
F46.5
sbs(g11
g2574
tp6627
g0
(g17
g2
Ntp6628
Rp6629
(dp6630
g21
F0.5
sg22
I45
sg23
g0
(g24
g25
(dp6631
I00
I31
sI01
I14
stp6632
Rp6633
(dp6634
g22
I45
sg30
Nsg31
Nsg32
Nsbsg33
I3
sg34
F46.5
sbs(g9
g982
tp6635
g0
(g17
g2
Ntp6636
Rp6637
(dp6638
g21
F0.5
sg22
I45
sg23
g0
(g24
g25
(dp6639
I00
I45
stp6640
Rp6641
(dp6642
g22
I45
sg30
Nsg31
Nsg32
Nsbsg33
I3
sg34
F46.5
sbs(g12
g240
tp6643
g0
(g17
g2
Ntp6644
Rp6645
(dp6646
g21
F0.5
sg22
I45
sg23
g0
(g24
g25
(dp6647
I00
I45
stp6648
Rp6649
(dp6650
g22
I45
sg30
Nsg31
Nsg32
Nsbsg33
I3
sg34
F46.5
sbs(g9
g1399
tp6651
g0
(g17
g2
Ntp6652
Rp6653
(dp6654
g21
F0.5
sg22
I45
sg23
g0
(g24
g25
(dp6655
I00
I45
stp6656
Rp6657
(dp6658
g22
I45
sg30
Nsg31
Nsg32
Nsbsg33
I3
sg34
F46.5
sbs(g12
g392
tp6659
g0
(g17
g2
Ntp6660
Rp6661
(dp6662
g21
F0.5
sg22
I45
sg23
g0
(g24
g25
(dp6663
I00
I32
sI01
I13
stp6664
Rp6665
(dp6666
g22
I45
sg30
Nsg31
Nsg32
Nsbsg33
I3
sg34
F46.5
sbs(g8
g964
tp6667
g0
(g17
g2
Ntp6668
Rp6669
(dp6670
g21
F0.5
sg22
I45
sg23
g0
(g24
g25
(dp6671
I00
I42
sI01
I3
stp6672
Rp6673
(dp6674
g22
I45
sg30
Nsg31
Nsg32
Nsbsg33
I3
sg34
F46.5
sbs(g8
g2474
tp6675
g0
(g17
g2
Ntp6676
Rp6677
(dp6678
g21
F0.5
sg22
I45
sg23
g0
(g24
g25
(dp6679
I00
I34
sI01
I11
stp6680
Rp6681
(dp6682
g22
I45
sg30
Nsg31
Nsg32
Nsbsg33
I3
sg34
F46.5
sbs(g10
g329
tp6683
g0
(g17
g2
Ntp6684
Rp6685
(dp6686
g21
F0.5
sg22
I45
sg23
g0
(g24
g25
(dp6687
I00
I34
sI01
I11
stp6688
Rp6689
(dp6690
g22
I45
sg30
Nsg31
Nsg32
Nsbsg33
I3
sg34
F46.5
sbs(g10
g982
tp6691
g0
(g17
g2
Ntp6692
Rp6693
(dp6694
g21
F0.5
sg22
I45
sg23
g0
(g24
g25
(dp6695
I00
I42
sI01
I3
stp6696
Rp6697
(dp6698
g22
I45
sg30
Nsg31
Nsg32
Nsbsg33
I3
sg34
F46.5
sbs(g12
g1115
tp6699
g0
(g17
g2
Ntp6700
Rp6701
(dp6702
g21
F0.5
sg22
I45
sg23
g0
(g24
g25
(dp6703
I00
I43
sI01
I2
stp6704
Rp6705
(dp6706
g22
I45
sg30
Nsg31
Nsg32
Nsbsg33
I3
sg34
F46.5
sbs(g11
g664
tp6707
g0
(g17
g2
Ntp6708
Rp6709
(dp6710
g21
F0.5
sg22
I45
sg23
g0
(g24
g25
(dp6711
I00
I45
stp6712
Rp6713
(dp6714
g22
I45
sg30
Nsg31
Nsg32
Nsbsg33
I3
sg34
F46.5
sbs(g11
g3581
tp6715
g0
(g17
g2
Ntp6716
Rp6717
(dp6718
g21
F0.5
sg22
I45
sg23
g0
(g24
g25
(dp6719
I00
I38
sI01
I7
stp6720
Rp6721
(dp6722
g22
I45
sg30
Nsg31
Nsg32
Nsbsg33
I3
sg34
F46.5
sbs(g11
g1159
tp6723
g0
(g17
g2
Ntp6724
Rp6725
(dp6726
g21
F0.5
sg22
I45
sg23
g0
(g24
g25
(dp6727
I00
I39
sI01
I6
stp6728
Rp6729
(dp6730
g22
I45
sg30
Nsg31
Nsg32
Nsbsg33
I3
sg34
F46.5
sbs(g12
g2625
tp6731
g0
(g17
g2
Ntp6732
Rp6733
(dp6734
g21
F0.5
sg22
I45
sg23
g0
(g24
g25
(dp6735
I00
I45
stp6736
Rp6737
(dp6738
g22
I45
sg30
Nsg31
Nsg32
Nsbsg33
I3
sg34
F46.5
sbs(g10
g3034
tp6739
g0
(g17
g2
Ntp6740
Rp6741
(dp6742
g21
F0.5
sg22
I45
sg23
g0
(g24
g25
(dp6743
I00
I10
sI01
I35
stp6744
Rp6745
(dp6746
g22
I45
sg30
Nsg31
Nsg32
Nsbsg33
I3
sg34
F46.5
sbs(g10
g3849
tp6747
g0
(g17
g2
Ntp6748
Rp6749
(dp6750
g21
F0.5
sg22
I45
sg23
g0
(g24
g25
(dp6751
I00
I18
sI01
I27
stp6752
Rp6753
(dp6754
g22
I45
sg30
Nsg31
Nsg32
Nsbsg33
I3
sg34
F46.5
sbs(g11
g733
tp6755
g0
(g17
g2
Ntp6756
Rp6757
(dp6758
g21
F0.5
sg22
I45
sg23
g0
(g24
g25
(dp6759
I00
I45
stp6760
Rp6761
(dp6762
g22
I45
sg30
Nsg31
Nsg32
Nsbsg33
I3
sg34
F46.5
sbs(g9
g2465
tp6763
g0
(g17
g2
Ntp6764
Rp6765
(dp6766
g21
F0.5
sg22
I45
sg23
g0
(g24
g25
(dp6767
I00
I44
sI01
I1
stp6768
Rp6769
(dp6770
g22
I45
sg30
Nsg31
Nsg32
Nsbsg33
I3
sg34
F46.5
sbs(g9
g1741
tp6771
g0
(g17
g2
Ntp6772
Rp6773
(dp6774
g21
F0.5
sg22
I45
sg23
g0
(g24
g25
(dp6775
I00
I40
sI01
I5
stp6776
Rp6777
(dp6778
g22
I45
sg30
Nsg31
Nsg32
Nsbsg33
I3
sg34
F46.5
sbs(g12
g2524
tp6779
g0
(g17
g2
Ntp6780
Rp6781
(dp6782
g21
F0.5
sg22
I45
sg23
g0
(g24
g25
(dp6783
I00
I14
sI01
I31
stp6784
Rp6785
(dp6786
g22
I45
sg30
Nsg31
Nsg32
Nsbsg33
I3
sg34
F46.5
sbs(g8
g213
tp6787
g0
(g17
g2
Ntp6788
Rp6789
(dp6790
g21
F0.5
sg22
I45
sg23
g0
(g24
g25
(dp6791
I00
I45
stp6792
Rp6793
(dp6794
g22
I45
sg30
Nsg31
Nsg32
Nsbsg33
I3
sg34
F46.5
sbs(g12
g1537
tp6795
g0
(g17
g2
Ntp6796
Rp6797
(dp6798
g21
F0.5
sg22
I45
sg23
g0
(g24
g25
(dp6799
I00
I45
stp6800
Rp6801
(dp6802
g22
I45
sg30
Nsg31
Nsg32
Nsbsg33
I3
sg34
F46.5
sbs(g10
g827
tp6803
g0
(g17
g2
Ntp6804
Rp6805
(dp6806
g21
F0.5
sg22
I45
sg23
g0
(g24
g25
(dp6807
I00
I41
sI01
I4
stp6808
Rp6809
(dp6810
g22
I45
sg30
Nsg31
Nsg32
Nsbsg33
I3
sg34
F46.5
sbs(g10
g392
tp6811
g0
(g17
g2
Ntp6812
Rp6813
(dp6814
g21
F0.5
sg22
I45
sg23
g0
(g24
g25
(dp6815
I00
I42
sI01
I3
stp6816
Rp6817
(dp6818
g22
I45
sg30
Nsg31
Nsg32
Nsbsg33
I3
sg34
F46.5
sbs(g10
g143
tp6819
g0
(g17
g2
Ntp6820
Rp6821
(dp6822
g21
F0.5
sg22
I45
sg23
g0
(g24
g25
(dp6823
I00
I37
sI01
I8
stp6824
Rp6825
(dp6826
g22
I45
sg30
Nsg31
Nsg32
Nsbsg33
I3
sg34
F46.5
sbs(g12
g89
tp6827
g0
(g17
g2
Ntp6828
Rp6829
(dp6830
g21
F0.5
sg22
I45
sg23
g0
(g24
g25
(dp6831
I00
I45
stp6832
Rp6833
(dp6834
g22
I45
sg30
Nsg31
Nsg32
Nsbsg33
I3
sg34
F46.5
sbs(g8
g2820
tp6835
g0
(g17
g2
Ntp6836
Rp6837
(dp6838
g21
F0.5
sg22
I45
sg23
g0
(g24
g25
(dp6839
I00
I45
stp6840
Rp6841
(dp6842
g22
I45
sg30
Nsg31
Nsg32
Nsbsg33
I3
sg34
F46.5
sbs(g10
g2829
tp6843
g0
(g17
g2
Ntp6844
Rp6845
(dp6846
g21
F0.5
sg22
I45
sg23
g0
(g24
g25
(dp6847
I00
I43
sI01
I2
stp6848
Rp6849
(dp6850
g22
I45
sg30
Nsg31
Nsg32
Nsbsg33
I3
sg34
F46.5
sbs(g10
g169
tp6851
g0
(g17
g2
Ntp6852
Rp6853
(dp6854
g21
F0.5
sg22
I45
sg23
g0
(g24
g25
(dp6855
I00
I45
stp6856
Rp6857
(dp6858
g22
I45
sg30
Nsg31
Nsg32
Nsbsg33
I3
sg34
F46.5
sbs(g8
g356
tp6859
g0
(g17
g2
Ntp6860
Rp6861
(dp6862
g21
F0.5
sg22
I45
sg23
g0
(g24
g25
(dp6863
I00
I1
sI01
I44
stp6864
Rp6865
(dp6866
g22
I45
sg30
Nsg31
Nsg32
Nsbsg33
I3
sg34
F46.5
sbs(g9
g1211
tp6867
g0
(g17
g2
Ntp6868
Rp6869
(dp6870
g21
F0.5
sg22
I45
sg23
g0
(g24
g25
(dp6871
I00
I42
sI01
I3
stp6872
Rp6873
(dp6874
g22
I45
sg30
Nsg31
Nsg32
Nsbsg33
I3
sg34
F46.5
sbs(g9
g1478
tp6875
g0
(g17
g2
Ntp6876
Rp6877
(dp6878
g21
F0.5
sg22
I45
sg23
g0
(g24
g25
(dp6879
I00
I45
stp6880
Rp6881
(dp6882
g22
I45
sg30
Nsg31
Nsg32
Nsbsg33
I3
sg34
F46.5
sbs(g11
g2465
tp6883
g0
(g17
g2
Ntp6884
Rp6885
(dp6886
g21
F0.5
sg22
I45
sg23
g0
(g24
g25
(dp6887
I00
I44
sI01
I1
stp6888
Rp6889
(dp6890
g22
I45
sg30
Nsg31
Nsg32
Nsbsg33
I3
sg34
F46.5
sbs(g9
g784
tp6891
g0
(g17
g2
Ntp6892
Rp6893
(dp6894
g21
F0.5
sg22
I45
sg23
g0
(g24
g25
(dp6895
I00
I24
sI01
I21
stp6896
Rp6897
(dp6898
g22
I45
sg30
Nsg31
Nsg32
Nsbsg33
I3
sg34
F46.5
sbs(g8
g6330
tp6899
g0
(g17
g2
Ntp6900
Rp6901
(dp6902
g21
F0.5
sg22
I45
sg23
g0
(g24
g25
(dp6903
I00
I41
sI01
I4
stp6904
Rp6905
(dp6906
g22
I45
sg30
Nsg31
Nsg32
Nsbsg33
I3
sg34
F46.5
sbs(g11
g1211
tp6907
g0
(g17
g2
Ntp6908
Rp6909
(dp6910
g21
F0.5
sg22
I45
sg23
g0
(g24
g25
(dp6911
I00
I33
sI01
I12
stp6912
Rp6913
(dp6914
g22
I45
sg30
Nsg31
Nsg32
Nsbsg33
I3
sg34
F46.5
sbs(g12
g682
tp6915
g0
(g17
g2
Ntp6916
Rp6917
(dp6918
g21
F0.5
sg22
I45
sg23
g0
(g24
g25
(dp6919
I00
I42
sI01
I3
stp6920
Rp6921
(dp6922
g22
I45
sg30
Nsg31
Nsg32
Nsbsg33
I3
sg34
F46.5
sbs(g10
g1478
tp6923
g0
(g17
g2
Ntp6924
Rp6925
(dp6926
g21
F0.5
sg22
I45
sg23
g0
(g24
g25
(dp6927
I00
I45
stp6928
Rp6929
(dp6930
g22
I45
sg30
Nsg31
Nsg32
Nsbsg33
I3
sg34
F46.5
sbs(g9
g1289
tp6931
g0
(g17
g2
Ntp6932
Rp6933
(dp6934
g21
F0.5
sg22
I45
sg23
g0
(g24
g25
(dp6935
I00
I45
stp6936
Rp6937
(dp6938
g22
I45
sg30
Nsg31
Nsg32
Nsbsg33
I3
sg34
F46.5
sbs(g9
g2383
tp6939
g0
(g17
g2
Ntp6940
Rp6941
(dp6942
g21
F0.5
sg22
I45
sg23
g0
(g24
g25
(dp6943
I00
I45
stp6944
Rp6945
(dp6946
g22
I45
sg30
Nsg31
Nsg32
Nsbsg33
I3
sg34
F46.5
sbs(g11
g2366
tp6947
g0
(g17
g2
Ntp6948
Rp6949
(dp6950
g21
F0.5
sg22
I45
sg23
g0
(g24
g25
(dp6951
I00
I38
sI01
I7
stp6952
Rp6953
(dp6954
g22
I45
sg30
Nsg31
Nsg32
Nsbsg33
I3
sg34
F46.5
sbs(g11
g784
tp6955
g0
(g17
g2
Ntp6956
Rp6957
(dp6958
g21
F0.5
sg22
I45
sg23
g0
(g24
g25
(dp6959
I00
I27
sI01
I18
stp6960
Rp6961
(dp6962
g22
I45
sg30
Nsg31
Nsg32
Nsbsg33
I3
sg34
F46.5
sbs(g11
g374
tp6963
g0
(g17
g2
Ntp6964
Rp6965
(dp6966
g21
F0.5
sg22
I45
sg23
g0
(g24
g25
(dp6967
I00
I45
stp6968
Rp6969
(dp6970
g22
I45
sg30
Nsg31
Nsg32
Nsbsg33
I3
sg34
F46.5
sbs(g12
g2173
tp6971
g0
(g17
g2
Ntp6972
Rp6973
(dp6974
g21
F0.5
sg22
I45
sg23
g0
(g24
g25
(dp6975
I00
I44
sI01
I1
stp6976
Rp6977
(dp6978
g22
I45
sg30
Nsg31
Nsg32
Nsbsg33
I3
sg34
F46.5
sbs(g10
g646
tp6979
g0
(g17
g2
Ntp6980
Rp6981
(dp6982
g21
F0.5
sg22
I45
sg23
g0
(g24
g25
(dp6983
I00
I45
stp6984
Rp6985
(dp6986
g22
I45
sg30
Nsg31
Nsg32
Nsbsg33
I3
sg34
F46.5
sbs(g10
g2465
tp6987
g0
(g17
g2
Ntp6988
Rp6989
(dp6990
g21
F0.5
sg22
I45
sg23
g0
(g24
g25
(dp6991
I00
I40
sI01
I5
stp6992
Rp6993
(dp6994
g22
I45
sg30
Nsg31
Nsg32
Nsbsg33
I3
sg34
F46.5
sbs(g12
g810
tp6995
g0
(g17
g2
Ntp6996
Rp6997
(dp6998
g21
F0.5
sg22
I45
sg23
g0
(g24
g25
(dp6999
I00
I45
stp7000
Rp7001
(dp7002
g22
I45
sg30
Nsg31
Nsg32
Nsbsg33
I3
sg34
F46.5
sbs(g11
g947
tp7003
g0
(g17
g2
Ntp7004
Rp7005
(dp7006
g21
F0.5
sg22
I45
sg23
g0
(g24
g25
(dp7007
I00
I35
sI01
I10
stp7008
Rp7009
(dp7010
g22
I45
sg30
Nsg31
Nsg32
Nsbsg33
I3
sg34
F46.5
sbs(g9
g793
tp7011
g0
(g17
g2
Ntp7012
Rp7013
(dp7014
g21
F0.5
sg22
I45
sg23
g0
(g24
g25
(dp7015
I00
I33
sI01
I12
stp7016
Rp7017
(dp7018
g22
I45
sg30
Nsg31
Nsg32
Nsbsg33
I3
sg34
F46.5
sbs(g12
g836
tp7019
g0
(g17
g2
Ntp7020
Rp7021
(dp7022
g21
F0.5
sg22
I45
sg23
g0
(g24
g25
(dp7023
I00
I44
sI01
I1
stp7024
Rp7025
(dp7026
g22
I45
sg30
Nsg31
Nsg32
Nsbsg33
I3
sg34
F46.5
sbs(g8
g2616
tp7027
g0
(g17
g2
Ntp7028
Rp7029
(dp7030
g21
F0.5
sg22
I45
sg23
g0
(g24
g25
(dp7031
I00
I31
sI01
I14
stp7032
Rp7033
(dp7034
g22
I45
sg30
Nsg31
Nsg32
Nsbsg33
I3
sg34
F46.5
sbs(g12
g4743
tp7035
g0
(g17
g2
Ntp7036
Rp7037
(dp7038
g21
F0.5
sg22
I45
sg23
g0
(g24
g25
(dp7039
I00
I45
stp7040
Rp7041
(dp7042
g22
I45
sg30
Nsg31
Nsg32
Nsbsg33
I3
sg34
F46.5
sbs(g12
g655
tp7043
g0
(g17
g2
Ntp7044
Rp7045
(dp7046
g21
F0.5
sg22
I45
sg23
g0
(g24
g25
(dp7047
I00
I45
stp7048
Rp7049
(dp7050
g22
I45
sg30
Nsg31
Nsg32
Nsbsg33
I3
sg34
F46.5
sbs(g12
g1469
tp7051
g0
(g17
g2
Ntp7052
Rp7053
(dp7054
g21
F0.5
sg22
I45
sg23
g0
(g24
g25
(dp7055
I00
I13
sI01
I32
stp7056
Rp7057
(dp7058
g22
I45
sg30
Nsg31
Nsg32
Nsbsg33
I3
sg34
F46.5
sbs(g10
g1315
tp7059
g0
(g17
g2
Ntp7060
Rp7061
(dp7062
g21
F0.5
sg22
I45
sg23
g0
(g24
g25
(dp7063
I00
I32
sI01
I13
stp7064
Rp7065
(dp7066
g22
I45
sg30
Nsg31
Nsg32
Nsbsg33
I3
sg34
F46.5
sbs(g12
g6330
tp7067
g0
(g17
g2
Ntp7068
Rp7069
(dp7070
g21
F0.5
sg22
I45
sg23
g0
(g24
g25
(dp7071
I00
I42
sI01
I3
stp7072
Rp7073
(dp7074
g22
I45
sg30
Nsg31
Nsg32
Nsbsg33
I3
sg34
F46.5
sbs(g11
g1390
tp7075
g0
(g17
g2
Ntp7076
Rp7077
(dp7078
g21
F0.5
sg22
I45
sg23
g0
(g24
g25
(dp7079
I00
I39
sI01
I6
stp7080
Rp7081
(dp7082
g22
I45
sg30
Nsg31
Nsg32
Nsbsg33
I3
sg34
F46.5
sbs(g11
g1724
tp7083
g0
(g17
g2
Ntp7084
Rp7085
(dp7086
g21
F0.5
sg22
I45
sg23
g0
(g24
g25
(dp7087
I00
I45
stp7088
Rp7089
(dp7090
g22
I45
sg30
Nsg31
Nsg32
Nsbsg33
I3
sg34
F46.5
sbs(g10
g1080
tp7091
g0
(g17
g2
Ntp7092
Rp7093
(dp7094
g21
F0.5
sg22
I45
sg23
g0
(g24
g25
(dp7095
I00
I40
sI01
I5
stp7096
Rp7097
(dp7098
g22
I45
sg30
Nsg31
Nsg32
Nsbsg33
I3
sg34
F46.5
sbs(g9
g2599
tp7099
g0
(g17
g2
Ntp7100
Rp7101
(dp7102
g21
F0.5
sg22
I45
sg23
g0
(g24
g25
(dp7103
I00
I43
sI01
I2
stp7104
Rp7105
(dp7106
g22
I45
sg30
Nsg31
Nsg32
Nsbsg33
I3
sg34
F46.5
sbs(g11
g603
tp7107
g0
(g17
g2
Ntp7108
Rp7109
(dp7110
g21
F0.5
sg22
I45
sg23
g0
(g24
g25
(dp7111
I00
I38
sI01
I7
stp7112
Rp7113
(dp7114
g22
I45
sg30
Nsg31
Nsg32
Nsbsg33
I3
sg34
F46.5
sbs(g9
g2483
tp7115
g0
(g17
g2
Ntp7116
Rp7117
(dp7118
g21
F0.5
sg22
I45
sg23
g0
(g24
g25
(dp7119
I00
I39
sI01
I6
stp7120
Rp7121
(dp7122
g22
I45
sg30
Nsg31
Nsg32
Nsbsg33
I3
sg34
F46.5
sbs(g11
g4028
tp7123
g0
(g17
g2
Ntp7124
Rp7125
(dp7126
g21
F0.5
sg22
I45
sg23
g0
(g24
g25
(dp7127
I00
I26
sI01
I19
stp7128
Rp7129
(dp7130
g22
I45
sg30
Nsg31
Nsg32
Nsbsg33
I3
sg34
F46.5
sbs(g8
g2173
tp7131
g0
(g17
g2
Ntp7132
Rp7133
(dp7134
g21
F0.5
sg22
I45
sg23
g0
(g24
g25
(dp7135
I00
I43
sI01
I2
stp7136
Rp7137
(dp7138
g22
I45
sg30
Nsg31
Nsg32
Nsbsg33
I3
sg34
F46.5
sbs(g12
g4003
tp7139
g0
(g17
g2
Ntp7140
Rp7141
(dp7142
g21
F0.5
sg22
I45
sg23
g0
(g24
g25
(dp7143
I00
I40
sI01
I5
stp7144
Rp7145
(dp7146
g22
I45
sg30
Nsg31
Nsg32
Nsbsg33
I3
sg34
F46.5
sbs(g12
g1245
tp7147
g0
(g17
g2
Ntp7148
Rp7149
(dp7150
g21
F0.5
sg22
I45
sg23
g0
(g24
g25
(dp7151
I00
I45
stp7152
Rp7153
(dp7154
g22
I45
sg30
Nsg31
Nsg32
Nsbsg33
I3
sg34
F46.5
sbs(g12
g947
tp7155
g0
(g17
g2
Ntp7156
Rp7157
(dp7158
g21
F0.5
sg22
I45
sg23
g0
(g24
g25
(dp7159
I00
I40
sI01
I5
stp7160
Rp7161
(dp7162
g22
I45
sg30
Nsg31
Nsg32
Nsbsg33
I3
sg34
F46.5
sbs(g9
g991
tp7163
g0
(g17
g2
Ntp7164
Rp7165
(dp7166
g21
F0.5
sg22
I45
sg23
g0
(g24
g25
(dp7167
I00
I43
sI01
I2
stp7168
Rp7169
(dp7170
g22
I45
sg30
Nsg31
Nsg32
Nsbsg33
I3
sg34
F46.5
sbs(g11
g836
tp7171
g0
(g17
g2
Ntp7172
Rp7173
(dp7174
g21
F0.5
sg22
I45
sg23
g0
(g24
g25
(dp7175
I00
I44
sI01
I1
stp7176
Rp7177
(dp7178
g22
I45
sg30
Nsg31
Nsg32
Nsbsg33
I3
sg34
F46.5
sbs(g10
g365
tp7179
g0
(g17
g2
Ntp7180
Rp7181
(dp7182
g21
F0.5
sg22
I45
sg23
g0
(g24
g25
(dp7183
I00
I18
sI01
I27
stp7184
Rp7185
(dp7186
g22
I45
sg30
Nsg31
Nsg32
Nsbsg33
I3
sg34
F46.5
sbs(g11
g1469
tp7187
g0
(g17
g2
Ntp7188
Rp7189
(dp7190
g21
F0.5
sg22
I45
sg23
g0
(g24
g25
(dp7191
I00
I23
sI01
I22
stp7192
Rp7193
(dp7194
g22
I45
sg30
Nsg31
Nsg32
Nsbsg33
I3
sg34
F46.5
sbs(g9
g89
tp7195
g0
(g17
g2
Ntp7196
Rp7197
(dp7198
g21
F0.5
sg22
I45
sg23
g0
(g24
g25
(dp7199
I00
I45
stp7200
Rp7201
(dp7202
g22
I45
sg30
Nsg31
Nsg32
Nsbsg33
I3
sg34
F46.5
sbs(g12
g3099
tp7203
g0
(g17
g2
Ntp7204
Rp7205
(dp7206
g21
F0.5
sg22
I45
sg23
g0
(g24
g25
(dp7207
I00
I25
sI01
I20
stp7208
Rp7209
(dp7210
g22
I45
sg30
Nsg31
Nsg32
Nsbsg33
I3
sg34
F46.5
sbs(g11
g134
tp7211
g0
(g17
g2
Ntp7212
Rp7213
(dp7214
g21
F0.5
sg22
I45
sg23
g0
(g24
g25
(dp7215
I00
I32
sI01
I13
stp7216
Rp7217
(dp7218
g22
I45
sg30
Nsg31
Nsg32
Nsbsg33
I3
sg34
F46.5
sbs(g10
g53
tp7219
g0
(g17
g2
Ntp7220
Rp7221
(dp7222
g21
F0.5
sg22
I45
sg23
g0
(g24
g25
(dp7223
I00
I2
sI01
I43
stp7224
Rp7225
(dp7226
g22
I45
sg30
Nsg31
Nsg32
Nsbsg33
I3
sg34
F46.5
sbs(g9
g3547
tp7227
g0
(g17
g2
Ntp7228
Rp7229
(dp7230
g21
F0.5
sg22
I45
sg23
g0
(g24
g25
(dp7231
I00
I45
stp7232
Rp7233
(dp7234
g22
I45
sg30
Nsg31
Nsg32
Nsbsg33
I3
sg34
F46.5
sbs(g9
g3327
tp7235
g0
(g17
g2
Ntp7236
Rp7237
(dp7238
g21
F0.5
sg22
I45
sg23
g0
(g24
g25
(dp7239
I00
I42
sI01
I3
stp7240
Rp7241
(dp7242
g22
I45
sg30
Nsg31
Nsg32
Nsbsg33
I3
sg34
F46.5
sbs(g11
g879
tp7243
g0
(g17
g2
Ntp7244
Rp7245
(dp7246
g21
F0.5
sg22
I45
sg23
g0
(g24
g25
(dp7247
I00
I34
sI01
I11
stp7248
Rp7249
(dp7250
g22
I45
sg30
Nsg31
Nsg32
Nsbsg33
I3
sg34
F46.5
sbs(g11
g2524
tp7251
g0
(g17
g2
Ntp7252
Rp7253
(dp7254
g21
F0.5
sg22
I45
sg23
g0
(g24
g25
(dp7255
I00
I16
sI01
I29
stp7256
Rp7257
(dp7258
g22
I45
sg30
Nsg31
Nsg32
Nsbsg33
I3
sg34
F46.5
sbs(g10
g3157
tp7259
g0
(g17
g2
Ntp7260
Rp7261
(dp7262
g21
F0.5
sg22
I45
sg23
g0
(g24
g25
(dp7263
I00
I45
stp7264
Rp7265
(dp7266
g22
I45
sg30
Nsg31
Nsg32
Nsbsg33
I3
sg34
F46.5
sbs(g10
g1141
tp7267
g0
(g17
g2
Ntp7268
Rp7269
(dp7270
g21
F0.5
sg22
I45
sg23
g0
(g24
g25
(dp7271
I01
I45
stp7272
Rp7273
(dp7274
g22
I45
sg30
Nsg31
Nsg32
Nsbsg33
I3
sg34
F46.5
sbs(g9
g2282
tp7275
g0
(g17
g2
Ntp7276
Rp7277
(dp7278
g21
F0.5
sg22
I45
sg23
g0
(g24
g25
(dp7279
I00
I33
sI01
I12
stp7280
Rp7281
(dp7282
g22
I45
sg30
Nsg31
Nsg32
Nsbsg33
I3
sg34
F46.5
sbs(g9
g964
tp7283
g0
(g17
g2
Ntp7284
Rp7285
(dp7286
g21
F0.5
sg22
I45
sg23
g0
(g24
g25
(dp7287
I00
I45
stp7288
Rp7289
(dp7290
g22
I45
sg30
Nsg31
Nsg32
Nsbsg33
I3
sg34
F46.5
sbs(g8
g905
tp7291
g0
(g17
g2
Ntp7292
Rp7293
(dp7294
g21
F0.5
sg22
I45
sg23
g0
(g24
g25
(dp7295
I00
I44
sI01
I1
stp7296
Rp7297
(dp7298
g22
I45
sg30
Nsg31
Nsg32
Nsbsg33
I3
sg34
F46.5
sbs(g9
g2474
tp7299
g0
(g17
g2
Ntp7300
Rp7301
(dp7302
g21
F0.5
sg22
I45
sg23
g0
(g24
g25
(dp7303
I00
I29
sI01
I16
stp7304
Rp7305
(dp7306
g22
I45
sg30
Nsg31
Nsg32
Nsbsg33
I3
sg34
F46.5
sbs(g10
g1097
tp7307
g0
(g17
g2
Ntp7308
Rp7309
(dp7310
g21
F0.5
sg22
I45
sg23
g0
(g24
g25
(dp7311
I00
I35
sI01
I10
stp7312
Rp7313
(dp7314
g22
I45
sg30
Nsg31
Nsg32
Nsbsg33
I3
sg34
F46.5
sbs(g8
g699
tp7315
g0
(g17
g2
Ntp7316
Rp7317
(dp7318
g21
F0.5
sg22
I45
sg23
g0
(g24
g25
(dp7319
I00
I45
stp7320
Rp7321
(dp7322
g22
I45
sg30
Nsg31
Nsg32
Nsbsg33
I3
sg34
F46.5
sbs(g11
g870
tp7323
g0
(g17
g2
Ntp7324
Rp7325
(dp7326
g21
F0.5
sg22
I45
sg23
g0
(g24
g25
(dp7327
I00
I45
stp7328
Rp7329
(dp7330
g22
I45
sg30
Nsg31
Nsg32
Nsbsg33
I3
sg34
F46.5
sbs(g11
g98
tp7331
g0
(g17
g2
Ntp7332
Rp7333
(dp7334
g21
F0.5
sg22
I45
sg23
g0
(g24
g25
(dp7335
I00
I45
stp7336
Rp7337
(dp7338
g22
I45
sg30
Nsg31
Nsg32
Nsbsg33
I3
sg34
F46.5
sbs(g10
g1053
tp7339
g0
(g17
g2
Ntp7340
Rp7341
(dp7342
g21
F0.5
sg22
I45
sg23
g0
(g24
g25
(dp7343
I00
I16
sI01
I29
stp7344
Rp7345
(dp7346
g22
I45
sg30
Nsg31
Nsg32
Nsbsg33
I3
sg34
F46.5
sbs(g10
g6330
tp7347
g0
(g17
g2
Ntp7348
Rp7349
(dp7350
g21
F0.5
sg22
I45
sg23
g0
(g24
g25
(dp7351
I00
I41
sI01
I4
stp7352
Rp7353
(dp7354
g22
I45
sg30
Nsg31
Nsg32
Nsbsg33
I3
sg34
F46.5
sbs(g8
g845
tp7355
g0
(g17
g2
Ntp7356
Rp7357
(dp7358
g21
F0.5
sg22
I45
sg23
g0
(g24
g25
(dp7359
I00
I45
stp7360
Rp7361
(dp7362
g22
I45
sg30
Nsg31
Nsg32
Nsbsg33
I3
sg34
F46.5
sbs(g11
g267
tp7363
g0
(g17
g2
Ntp7364
Rp7365
(dp7366
g21
F0.5
sg22
I45
sg23
g0
(g24
g25
(dp7367
I00
I39
sI01
I6
stp7368
Rp7369
(dp7370
g22
I45
sg30
Nsg31
Nsg32
Nsbsg33
I3
sg34
F46.5
sbs(g12
g4229
tp7371
g0
(g17
g2
Ntp7372
Rp7373
(dp7374
g21
F0.5
sg22
I45
sg23
g0
(g24
g25
(dp7375
I00
I33
sI01
I12
stp7376
Rp7377
(dp7378
g22
I45
sg30
Nsg31
Nsg32
Nsbsg33
I3
sg34
F46.5
sbs(g11
g302
tp7379
g0
(g17
g2
Ntp7380
Rp7381
(dp7382
g21
F0.5
sg22
I45
sg23
g0
(g24
g25
(dp7383
I00
I43
sI01
I2
stp7384
Rp7385
(dp7386
g22
I45
sg30
Nsg31
Nsg32
Nsbsg33
I3
sg34
F46.5
sbs(g10
g4003
tp7387
g0
(g17
g2
Ntp7388
Rp7389
(dp7390
g21
F0.5
sg22
I45
sg23
g0
(g24
g25
(dp7391
I00
I38
sI01
I7
stp7392
Rp7393
(dp7394
g22
I45
sg30
Nsg31
Nsg32
Nsbsg33
I3
sg34
F46.5
sbs(g11
g204
tp7395
g0
(g17
g2
Ntp7396
Rp7397
(dp7398
g21
F0.5
sg22
I45
sg23
g0
(g24
g25
(dp7399
I00
I45
stp7400
Rp7401
(dp7402
g22
I45
sg30
Nsg31
Nsg32
Nsbsg33
I3
sg34
F46.5
sbs(g10
g1623
tp7403
g0
(g17
g2
Ntp7404
Rp7405
(dp7406
g21
F0.5
sg22
I45
sg23
g0
(g24
g25
(dp7407
I00
I27
sI01
I18
stp7408
Rp7409
(dp7410
g22
I45
sg30
Nsg31
Nsg32
Nsbsg33
I3
sg34
F46.5
sbs(g8
g620
tp7411
g0
(g17
g2
Ntp7412
Rp7413
(dp7414
g21
F0.5
sg22
I45
sg23
g0
(g24
g25
(dp7415
I00
I45
stp7416
Rp7417
(dp7418
g22
I45
sg30
Nsg31
Nsg32
Nsbsg33
I3
sg34
F46.5
sbs(g11
g3849
tp7419
g0
(g17
g2
Ntp7420
Rp7421
(dp7422
g21
F0.5
sg22
I45
sg23
g0
(g24
g25
(dp7423
I00
I15
sI01
I30
stp7424
Rp7425
(dp7426
g22
I45
sg30
Nsg31
Nsg32
Nsbsg33
I3
sg34
F46.5
sbs(g12
g982
tp7427
g0
(g17
g2
Ntp7428
Rp7429
(dp7430
g21
F0.5
sg22
I45
sg23
g0
(g24
g25
(dp7431
I00
I45
stp7432
Rp7433
(dp7434
g22
I45
sg30
Nsg31
Nsg32
Nsbsg33
I3
sg34
F46.5
sbs(g10
g1132
tp7435
g0
(g17
g2
Ntp7436
Rp7437
(dp7438
g21
F0.5
sg22
I45
sg23
g0
(g24
g25
(dp7439
I00
I45
stp7440
Rp7441
(dp7442
g22
I45
sg30
Nsg31
Nsg32
Nsbsg33
I3
sg34
F46.5
sbs(g10
g1665
tp7443
g0
(g17
g2
Ntp7444
Rp7445
(dp7446
g21
F0.5
sg22
I45
sg23
g0
(g24
g25
(dp7447
I00
I45
stp7448
Rp7449
(dp7450
g22
I45
sg30
Nsg31
Nsg32
Nsbsg33
I3
sg34
F46.5
sbs(g10
g2976
tp7451
g0
(g17
g2
Ntp7452
Rp7453
(dp7454
g21
F0.5
sg22
I45
sg23
g0
(g24
g25
(dp7455
I00
I38
sI01
I7
stp7456
Rp7457
(dp7458
g22
I45
sg30
Nsg31
Nsg32
Nsbsg33
I3
sg34
F46.5
sbs(g10
g2173
tp7459
g0
(g17
g2
Ntp7460
Rp7461
(dp7462
g21
F0.5
sg22
I45
sg23
g0
(g24
g25
(dp7463
I00
I45
stp7464
Rp7465
(dp7466
g22
I45
sg30
Nsg31
Nsg32
Nsbsg33
I3
sg34
F46.5
sbs(g12
g169
tp7467
g0
(g17
g2
Ntp7468
Rp7469
(dp7470
g21
F0.5
sg22
I45
sg23
g0
(g24
g25
(dp7471
I00
I45
stp7472
Rp7473
(dp7474
g22
I45
sg30
Nsg31
Nsg32
Nsbsg33
I3
sg34
F46.5
sbs(g10
g1399
tp7475
g0
(g17
g2
Ntp7476
Rp7477
(dp7478
g21
F0.5
sg22
I45
sg23
g0
(g24
g25
(dp7479
I00
I45
stp7480
Rp7481
(dp7482
g22
I45
sg30
Nsg31
Nsg32
Nsbsg33
I3
sg34
F46.5
sbs(g12
g1132
tp7483
g0
(g17
g2
Ntp7484
Rp7485
(dp7486
g21
F0.5
sg22
I45
sg23
g0
(g24
g25
(dp7487
I00
I45
stp7488
Rp7489
(dp7490
g22
I45
sg30
Nsg31
Nsg32
Nsbsg33
I3
sg34
F46.5
sbs(g11
g3336
tp7491
g0
(g17
g2
Ntp7492
Rp7493
(dp7494
g21
F0.5
sg22
I45
sg23
g0
(g24
g25
(dp7495
I00
I42
sI01
I3
stp7496
Rp7497
(dp7498
g22
I45
sg30
Nsg31
Nsg32
Nsbsg33
I3
sg34
F46.5
sbs(g8
g1263
tp7499
g0
(g17
g2
Ntp7500
Rp7501
(dp7502
g21
F0.5
sg22
I45
sg23
g0
(g24
g25
(dp7503
I00
I27
sI01
I18
stp7504
Rp7505
(dp7506
g22
I45
sg30
Nsg31
Nsg32
Nsbsg33
I3
sg34
F46.5
sbs(g8
g827
tp7507
g0
(g17
g2
Ntp7508
Rp7509
(dp7510
g21
F0.5
sg22
I45
sg23
g0
(g24
g25
(dp7511
I00
I38
sI01
I7
stp7512
Rp7513
(dp7514
g22
I45
sg30
Nsg31
Nsg32
Nsbsg33
I3
sg34
F46.5
sbs(g12
g716
tp7515
g0
(g17
g2
Ntp7516
Rp7517
(dp7518
g21
F0.5
sg22
I45
sg23
g0
(g24
g25
(dp7519
I00
I45
stp7520
Rp7521
(dp7522
g22
I45
sg30
Nsg31
Nsg32
Nsbsg33
I3
sg34
F46.5
sbs(g12
g1080
tp7523
g0
(g17
g2
Ntp7524
Rp7525
(dp7526
g21
F0.5
sg22
I45
sg23
g0
(g24
g25
(dp7527
I00
I45
stp7528
Rp7529
(dp7530
g22
I45
sg30
Nsg31
Nsg32
Nsbsg33
I3
sg34
F46.5
sbs(g11
g1053
tp7531
g0
(g17
g2
Ntp7532
Rp7533
(dp7534
g21
F0.5
sg22
I45
sg23
g0
(g24
g25
(dp7535
I00
I45
stp7536
Rp7537
(dp7538
g22
I45
sg30
Nsg31
Nsg32
Nsbsg33
I3
sg34
F46.5
sbs(g10
g338
tp7539
g0
(g17
g2
Ntp7540
Rp7541
(dp7542
g21
F0.5
sg22
I45
sg23
g0
(g24
g25
(dp7543
I00
I45
stp7544
Rp7545
(dp7546
g22
I45
sg30
Nsg31
Nsg32
Nsbsg33
I3
sg34
F46.5
sbs(g12
g1194
tp7547
g0
(g17
g2
Ntp7548
Rp7549
(dp7550
g21
F0.5
sg22
I45
sg23
g0
(g24
g25
(dp7551
I00
I45
stp7552
Rp7553
(dp7554
g22
I45
sg30
Nsg31
Nsg32
Nsbsg33
I3
sg34
F46.5
sbs(g9
g3254
tp7555
g0
(g17
g2
Ntp7556
Rp7557
(dp7558
g21
F0.5
sg22
I45
sg23
g0
(g24
g25
(dp7559
I00
I45
stp7560
Rp7561
(dp7562
g22
I45
sg30
Nsg31
Nsg32
Nsbsg33
I3
sg34
F46.5
sbs(g9
g347
tp7563
g0
(g17
g2
Ntp7564
Rp7565
(dp7566
g21
F0.5
sg22
I45
sg23
g0
(g24
g25
(dp7567
I00
I45
stp7568
Rp7569
(dp7570
g22
I45
sg30
Nsg31
Nsg32
Nsbsg33
I3
sg34
F46.5
sbs(g10
g1027
tp7571
g0
(g17
g2
Ntp7572
Rp7573
(dp7574
g21
F0.5
sg22
I45
sg23
g0
(g24
g25
(dp7575
I00
I44
sI01
I1
stp7576
Rp7577
(dp7578
g22
I45
sg30
Nsg31
Nsg32
Nsbsg33
I3
sg34
F46.5
sbs(g11
g3157
tp7579
g0
(g17
g2
Ntp7580
Rp7581
(dp7582
g21
F0.5
sg22
I45
sg23
g0
(g24
g25
(dp7583
I00
I39
sI01
I6
stp7584
Rp7585
(dp7586
g22
I45
sg30
Nsg31
Nsg32
Nsbsg33
I3
sg34
F46.5
sbs(g8
g3718
tp7587
g0
(g17
g2
Ntp7588
Rp7589
(dp7590
g21
F0.5
sg22
I45
sg23
g0
(g24
g25
(dp7591
I00
I44
sI01
I1
stp7592
Rp7593
(dp7594
g22
I45
sg30
Nsg31
Nsg32
Nsbsg33
I3
sg34
F46.5
sbs(g12
g1062
tp7595
g0
(g17
g2
Ntp7596
Rp7597
(dp7598
g21
F0.5
sg22
I45
sg23
g0
(g24
g25
(dp7599
I00
I36
sI01
I9
stp7600
Rp7601
(dp7602
g22
I45
sg30
Nsg31
Nsg32
Nsbsg33
I3
sg34
F46.5
sbs(g9
g4462
tp7603
g0
(g17
g2
Ntp7604
Rp7605
(dp7606
g21
F0.5
sg22
I45
sg23
g0
(g24
g25
(dp7607
I00
I45
stp7608
Rp7609
(dp7610
g22
I45
sg30
Nsg31
Nsg32
Nsbsg33
I3
sg34
F46.5
sbs(g8
g1451
tp7611
g0
(g17
g2
Ntp7612
Rp7613
(dp7614
g21
F0.5
sg22
I45
sg23
g0
(g24
g25
(dp7615
I00
I45
stp7616
Rp7617
(dp7618
g22
I45
sg30
Nsg31
Nsg32
Nsbsg33
I3
sg34
F46.5
sbs(g8
g1546
tp7619
g0
(g17
g2
Ntp7620
Rp7621
(dp7622
g21
F0.5
sg22
I45
sg23
g0
(g24
g25
(dp7623
I00
I26
sI01
I19
stp7624
Rp7625
(dp7626
g22
I45
sg30
Nsg31
Nsg32
Nsbsg33
I3
sg34
F46.5
sbs(g10
g80
tp7627
g0
(g17
g2
Ntp7628
Rp7629
(dp7630
g21
F0.5
sg22
I45
sg23
g0
(g24
g25
(dp7631
I00
I45
stp7632
Rp7633
(dp7634
g22
I45
sg30
Nsg31
Nsg32
Nsbsg33
I3
sg34
F46.5
sbs(g8
g240
tp7635
g0
(g17
g2
Ntp7636
Rp7637
(dp7638
g21
F0.5
sg22
I45
sg23
g0
(g24
g25
(dp7639
I00
I45
stp7640
Rp7641
(dp7642
g22
I45
sg30
Nsg31
Nsg32
Nsbsg33
I3
sg34
F46.5
sbs(g9
g3157
tp7643
g0
(g17
g2
Ntp7644
Rp7645
(dp7646
g21
F0.5
sg22
I45
sg23
g0
(g24
g25
(dp7647
I00
I45
stp7648
Rp7649
(dp7650
g22
I45
sg30
Nsg31
Nsg32
Nsbsg33
I3
sg34
F46.5
sbs(g10
g1892
tp7651
g0
(g17
g2
Ntp7652
Rp7653
(dp7654
g21
F0.5
sg22
I45
sg23
g0
(g24
g25
(dp7655
I00
I43
sI01
I2
stp7656
Rp7657
(dp7658
g22
I45
sg30
Nsg31
Nsg32
Nsbsg33
I3
sg34
F46.5
sbs(g10
g551
tp7659
g0
(g17
g2
Ntp7660
Rp7661
(dp7662
g21
F0.5
sg22
I45
sg23
g0
(g24
g25
(dp7663
I00
I38
sI01
I7
stp7664
Rp7665
(dp7666
g22
I45
sg30
Nsg31
Nsg32
Nsbsg33
I3
sg34
F46.5
sbs(g11
g258
tp7667
g0
(g17
g2
Ntp7668
Rp7669
(dp7670
g21
F0.5
sg22
I45
sg23
g0
(g24
g25
(dp7671
I00
I45
stp7672
Rp7673
(dp7674
g22
I45
sg30
Nsg31
Nsg32
Nsbsg33
I3
sg34
F46.5
sbs(g10
g1062
tp7675
g0
(g17
g2
Ntp7676
Rp7677
(dp7678
g21
F0.5
sg22
I45
sg23
g0
(g24
g25
(dp7679
I00
I37
sI01
I8
stp7680
Rp7681
(dp7682
g22
I45
sg30
Nsg31
Nsg32
Nsbsg33
I3
sg34
F46.5
sbs(g12
g3327
tp7683
g0
(g17
g2
Ntp7684
Rp7685
(dp7686
g21
F0.5
sg22
I45
sg23
g0
(g24
g25
(dp7687
I00
I45
stp7688
Rp7689
(dp7690
g22
I45
sg30
Nsg31
Nsg32
Nsbsg33
I3
sg34
F46.5
sbs(g9
g1580
tp7691
g0
(g17
g2
Ntp7692
Rp7693
(dp7694
g21
F0.5
sg22
I45
sg23
g0
(g24
g25
(dp7695
I00
I8
sI01
I37
stp7696
Rp7697
(dp7698
g22
I45
sg30
Nsg31
Nsg32
Nsbsg33
I3
sg34
F46.5
sbs(g10
g2129
tp7699
g0
(g17
g2
Ntp7700
Rp7701
(dp7702
g21
F0.5
sg22
I45
sg23
g0
(g24
g25
(dp7703
I00
I45
stp7704
Rp7705
(dp7706
g22
I45
sg30
Nsg31
Nsg32
Nsbsg33
I3
sg34
F46.5
sbs(g9
g845
tp7707
g0
(g17
g2
Ntp7708
Rp7709
(dp7710
g21
F0.5
sg22
I45
sg23
g0
(g24
g25
(dp7711
I00
I45
stp7712
Rp7713
(dp7714
g22
I45
sg30
Nsg31
Nsg32
Nsbsg33
I3
sg34
F46.5
sbs(g10
g409
tp7715
g0
(g17
g2
Ntp7716
Rp7717
(dp7718
g21
F0.5
sg22
I45
sg23
g0
(g24
g25
(dp7719
I00
I29
sI01
I16
stp7720
Rp7721
(dp7722
g22
I45
sg30
Nsg31
Nsg32
Nsbsg33
I3
sg34
F46.5
sbs(g9
g1009
tp7723
g0
(g17
g2
Ntp7724
Rp7725
(dp7726
g21
F0.5
sg22
I45
sg23
g0
(g24
g25
(dp7727
I00
I45
stp7728
Rp7729
(dp7730
g22
I45
sg30
Nsg31
Nsg32
Nsbsg33
I3
sg34
F46.5
sbs(g8
g1892
tp7731
g0
(g17
g2
Ntp7732
Rp7733
(dp7734
g21
F0.5
sg22
I45
sg23
g0
(g24
g25
(dp7735
I00
I38
sI01
I7
stp7736
Rp7737
(dp7738
g22
I45
sg30
Nsg31
Nsg32
Nsbsg33
I3
sg34
F46.5
sbs(g11
g249
tp7739
g0
(g17
g2
Ntp7740
Rp7741
(dp7742
g21
F0.5
sg22
I45
sg23
g0
(g24
g25
(dp7743
I00
I45
stp7744
Rp7745
(dp7746
g22
I45
sg30
Nsg31
Nsg32
Nsbsg33
I3
sg34
F46.5
sbs(g12
g5208
tp7747
g0
(g17
g2
Ntp7748
Rp7749
(dp7750
g21
F0.5
sg22
I45
sg23
g0
(g24
g25
(dp7751
I00
I45
stp7752
Rp7753
(dp7754
g22
I45
sg30
Nsg31
Nsg32
Nsbsg33
I3
sg34
F46.5
sbs(g12
g329
tp7755
g0
(g17
g2
Ntp7756
Rp7757
(dp7758
g21
F0.5
sg22
I45
sg23
g0
(g24
g25
(dp7759
I00
I43
sI01
I2
stp7760
Rp7761
(dp7762
g22
I45
sg30
Nsg31
Nsg32
Nsbsg33
I3
sg34
F46.5
sbs(g8
g879
tp7763
g0
(g17
g2
Ntp7764
Rp7765
(dp7766
g21
F0.5
sg22
I45
sg23
g0
(g24
g25
(dp7767
I00
I45
stp7768
Rp7769
(dp7770
g22
I45
sg30
Nsg31
Nsg32
Nsbsg33
I3
sg34
F46.5
sbs(g8
g3254
tp7771
g0
(g17
g2
Ntp7772
Rp7773
(dp7774
g21
F0.5
sg22
I45
sg23
g0
(g24
g25
(dp7775
I00
I45
stp7776
Rp7777
(dp7778
g22
I45
sg30
Nsg31
Nsg32
Nsbsg33
I3
sg34
F46.5
sbs(g10
g603
tp7779
g0
(g17
g2
Ntp7780
Rp7781
(dp7782
g21
F0.5
sg22
I45
sg23
g0
(g24
g25
(dp7783
I00
I32
sI01
I13
stp7784
Rp7785
(dp7786
g22
I45
sg30
Nsg31
Nsg32
Nsbsg33
I3
sg34
F46.5
sbs(g10
g3254
tp7787
g0
(g17
g2
Ntp7788
Rp7789
(dp7790
g21
F0.5
sg22
I45
sg23
g0
(g24
g25
(dp7791
I00
I45
stp7792
Rp7793
(dp7794
g22
I45
sg30
Nsg31
Nsg32
Nsbsg33
I3
sg34
F46.5
sbs(g12
g1315
tp7795
g0
(g17
g2
Ntp7796
Rp7797
(dp7798
g21
F0.5
sg22
I45
sg23
g0
(g24
g25
(dp7799
I00
I29
sI01
I16
stp7800
Rp7801
(dp7802
g22
I45
sg30
Nsg31
Nsg32
Nsbsg33
I3
sg34
F46.5
sbs(g10
g125
tp7803
g0
(g17
g2
Ntp7804
Rp7805
(dp7806
g21
F0.5
sg22
I45
sg23
g0
(g24
g25
(dp7807
I00
I27
sI01
I18
stp7808
Rp7809
(dp7810
g22
I45
sg30
Nsg31
Nsg32
Nsbsg33
I3
sg34
F46.5
sbs(g9
g222
tp7811
g0
(g17
g2
Ntp7812
Rp7813
(dp7814
g21
F0.5
sg22
I45
sg23
g0
(g24
g25
(dp7815
I00
I33
sI01
I12
stp7816
Rp7817
(dp7818
g22
I45
sg30
Nsg31
Nsg32
Nsbsg33
I3
sg34
F46.5
sbs(g9
g5208
tp7819
g0
(g17
g2
Ntp7820
Rp7821
(dp7822
g21
F0.5
sg22
I45
sg23
g0
(g24
g25
(dp7823
I00
I45
stp7824
Rp7825
(dp7826
g22
I45
sg30
Nsg31
Nsg32
Nsbsg33
I3
sg34
F46.5
sbs(g8
g1750
tp7827
g0
(g17
g2
Ntp7828
Rp7829
(dp7830
g21
F0.5
sg22
I45
sg23
g0
(g24
g25
(dp7831
I00
I21
sI01
I24
stp7832
Rp7833
(dp7834
g22
I45
sg30
Nsg31
Nsg32
Nsbsg33
I3
sg34
F46.5
sbs(g12
g418
tp7835
g0
(g17
g2
Ntp7836
Rp7837
(dp7838
g21
F0.5
sg22
I45
sg23
g0
(g24
g25
(dp7839
I00
I36
sI01
I9
stp7840
Rp7841
(dp7842
g22
I45
sg30
Nsg31
Nsg32
Nsbsg33
I3
sg34
F46.5
sbs(g8
g418
tp7843
g0
(g17
g2
Ntp7844
Rp7845
(dp7846
g21
F0.5
sg22
I45
sg23
g0
(g24
g25
(dp7847
I00
I45
stp7848
Rp7849
(dp7850
g22
I45
sg30
Nsg31
Nsg32
Nsbsg33
I3
sg34
F46.5
sbs(g8
g1185
tp7851
g0
(g17
g2
Ntp7852
Rp7853
(dp7854
g21
F0.5
sg22
I45
sg23
g0
(g24
g25
(dp7855
I00
I26
sI01
I19
stp7856
Rp7857
(dp7858
g22
I45
sg30
Nsg31
Nsg32
Nsbsg33
I3
sg34
F46.5
sbs(g11
g3034
tp7859
g0
(g17
g2
Ntp7860
Rp7861
(dp7862
g21
F0.5
sg22
I45
sg23
g0
(g24
g25
(dp7863
I00
I14
sI01
I31
stp7864
Rp7865
(dp7866
g22
I45
sg30
Nsg31
Nsg32
Nsbsg33
I3
sg34
F46.5
sbs(g10
g1185
tp7867
g0
(g17
g2
Ntp7868
Rp7869
(dp7870
g21
F0.5
sg22
I45
sg23
g0
(g24
g25
(dp7871
I00
I17
sI01
I28
stp7872
Rp7873
(dp7874
g22
I45
sg30
Nsg31
Nsg32
Nsbsg33
I3
sg34
F46.5
sbs(g11
g1115
tp7875
g0
(g17
g2
Ntp7876
Rp7877
(dp7878
g21
F0.5
sg22
I45
sg23
g0
(g24
g25
(dp7879
I00
I45
stp7880
Rp7881
(dp7882
g22
I45
sg30
Nsg31
Nsg32
Nsbsg33
I3
sg34
F46.5
sbs(g9
g1892
tp7883
g0
(g17
g2
Ntp7884
Rp7885
(dp7886
g21
F0.5
sg22
I45
sg23
g0
(g24
g25
(dp7887
I00
I44
sI01
I1
stp7888
Rp7889
(dp7890
g22
I45
sg30
Nsg31
Nsg32
Nsbsg33
I3
sg34
F46.5
sbs(g12
g53
tp7891
g0
(g17
g2
Ntp7892
Rp7893
(dp7894
g21
F0.5
sg22
I45
sg23
g0
(g24
g25
(dp7895
I00
I8
sI01
I37
stp7896
Rp7897
(dp7898
g22
I45
sg30
Nsg31
Nsg32
Nsbsg33
I3
sg34
F46.5
sbs(g10
g2524
tp7899
g0
(g17
g2
Ntp7900
Rp7901
(dp7902
g21
F0.5
sg22
I45
sg23
g0
(g24
g25
(dp7903
I00
I19
sI01
I26
stp7904
Rp7905
(dp7906
g22
I45
sg30
Nsg31
Nsg32
Nsbsg33
I3
sg34
F46.5
sbs(g10
g1211
tp7907
g0
(g17
g2
Ntp7908
Rp7909
(dp7910
g21
F0.5
sg22
I45
sg23
g0
(g24
g25
(dp7911
I00
I30
sI01
I15
stp7912
Rp7913
(dp7914
g22
I45
sg30
Nsg31
Nsg32
Nsbsg33
I3
sg34
F46.5
sbs(g12
g3132
tp7915
g0
(g17
g2
Ntp7916
Rp7917
(dp7918
g21
F0.5
sg22
I45
sg23
g0
(g24
g25
(dp7919
I00
I42
sI01
I3
stp7920
Rp7921
(dp7922
g22
I45
sg30
Nsg31
Nsg32
Nsbsg33
I3
sg34
F46.5
sbs(g9
g4229
tp7923
g0
(g17
g2
Ntp7924
Rp7925
(dp7926
g21
F0.5
sg22
I45
sg23
g0
(g24
g25
(dp7927
I00
I45
stp7928
Rp7929
(dp7930
g22
I45
sg30
Nsg31
Nsg32
Nsbsg33
I3
sg34
F46.5
sbs(g10
g4462
tp7931
g0
(g17
g2
Ntp7932
Rp7933
(dp7934
g21
F0.5
sg22
I45
sg23
g0
(g24
g25
(dp7935
I00
I36
sI01
I9
stp7936
Rp7937
(dp7938
g22
I45
sg30
Nsg31
Nsg32
Nsbsg33
I3
sg34
F46.5
sbs(g12
g1546
tp7939
g0
(g17
g2
Ntp7940
Rp7941
(dp7942
g21
F0.5
sg22
I45
sg23
g0
(g24
g25
(dp7943
I00
I30
sI01
I15
stp7944
Rp7945
(dp7946
g22
I45
sg30
Nsg31
Nsg32
Nsbsg33
I3
sg34
F46.5
sbs(g10
g2456
tp7947
g0
(g17
g2
Ntp7948
Rp7949
(dp7950
g21
F0.5
sg22
I45
sg23
g0
(g24
g25
(dp7951
I00
I45
stp7952
Rp7953
(dp7954
g22
I45
sg30
Nsg31
Nsg32
Nsbsg33
I3
sg34
F46.5
sbs(g10
g1289
tp7955
g0
(g17
g2
Ntp7956
Rp7957
(dp7958
g21
F0.5
sg22
I45
sg23
g0
(g24
g25
(dp7959
I00
I45
stp7960
Rp7961
(dp7962
g22
I45
sg30
Nsg31
Nsg32
Nsbsg33
I3
sg34
F46.5
sbs(g10
g947
tp7963
g0
(g17
g2
Ntp7964
Rp7965
(dp7966
g21
F0.5
sg22
I45
sg23
g0
(g24
g25
(dp7967
I00
I44
sI01
I1
stp7968
Rp7969
(dp7970
g22
I45
sg30
Nsg31
Nsg32
Nsbsg33
I3
sg34
F46.5
sbs(g10
g1408
tp7971
g0
(g17
g2
Ntp7972
Rp7973
(dp7974
g21
F0.5
sg22
I45
sg23
g0
(g24
g25
(dp7975
I00
I40
sI01
I5
stp7976
Rp7977
(dp7978
g22
I45
sg30
Nsg31
Nsg32
Nsbsg33
I3
sg34
F46.5
sbs(g11
g1843
tp7979
g0
(g17
g2
Ntp7980
Rp7981
(dp7982
g21
F0.5
sg22
I45
sg23
g0
(g24
g25
(dp7983
I00
I45
stp7984
Rp7985
(dp7986
g22
I45
sg30
Nsg31
Nsg32
Nsbsg33
I3
sg34
F46.5
sbs(g12
g2474
tp7987
g0
(g17
g2
Ntp7988
Rp7989
(dp7990
g21
F0.5
sg22
I45
sg23
g0
(g24
g25
(dp7991
I00
I7
sI01
I38
stp7992
Rp7993
(dp7994
g22
I45
sg30
Nsg31
Nsg32
Nsbsg33
I3
sg34
F46.5
sbs(g8
g1442
tp7995
g0
(g17
g2
Ntp7996
Rp7997
(dp7998
g21
F0.5
sg22
I45
sg23
g0
(g24
g25
(dp7999
I00
I38
sI01
I7
stp8000
Rp8001
(dp8002
g22
I45
sg30
Nsg31
Nsg32
Nsbsg33
I3
sg34
F46.5
sbs(g10
g3783
tp8003
g0
(g17
g2
Ntp8004
Rp8005
(dp8006
g21
F0.5
sg22
I45
sg23
g0
(g24
g25
(dp8007
I00
I12
sI01
I33
stp8008
Rp8009
(dp8010
g22
I45
sg30
Nsg31
Nsg32
Nsbsg33
I3
sg34
F46.5
sbs(g9
g4743
tp8011
g0
(g17
g2
Ntp8012
Rp8013
(dp8014
g21
F0.5
sg22
I45
sg23
g0
(g24
g25
(dp8015
I00
I44
sI01
I1
stp8016
Rp8017
(dp8018
g22
I45
sg30
Nsg31
Nsg32
Nsbsg33
I3
sg34
F46.5
sbs(g10
g3426
tp8019
g0
(g17
g2
Ntp8020
Rp8021
(dp8022
g21
F0.5
sg22
I45
sg23
g0
(g24
g25
(dp8023
I00
I45
stp8024
Rp8025
(dp8026
g22
I45
sg30
Nsg31
Nsg32
Nsbsg33
I3
sg34
F46.5
sbs(g9
g1408
tp8027
g0
(g17
g2
Ntp8028
Rp8029
(dp8030
g21
F0.5
sg22
I45
sg23
g0
(g24
g25
(dp8031
I00
I38
sI01
I7
stp8032
Rp8033
(dp8034
g22
I45
sg30
Nsg31
Nsg32
Nsbsg33
I3
sg34
F46.5
sbs(g12
g463
tp8035
g0
(g17
g2
Ntp8036
Rp8037
(dp8038
g21
F0.5
sg22
I45
sg23
g0
(g24
g25
(dp8039
I00
I45
stp8040
Rp8041
(dp8042
g22
I45
sg30
Nsg31
Nsg32
Nsbsg33
I3
sg34
F46.5
sbs(g11
g682
tp8043
g0
(g17
g2
Ntp8044
Rp8045
(dp8046
g21
F0.5
sg22
I45
sg23
g0
(g24
g25
(dp8047
I00
I45
stp8048
Rp8049
(dp8050
g22
I45
sg30
Nsg31
Nsg32
Nsbsg33
I3
sg34
F46.5
sbs(g11
g3816
tp8051
g0
(g17
g2
Ntp8052
Rp8053
(dp8054
g21
F0.5
sg22
I45
sg23
g0
(g24
g25
(dp8055
I00
I40
sI01
I5
stp8056
Rp8057
(dp8058
g22
I45
sg30
Nsg31
Nsg32
Nsbsg33
I3
sg34
F46.5
sbs(g9
g1097
tp8059
g0
(g17
g2
Ntp8060
Rp8061
(dp8062
g21
F0.5
sg22
I45
sg23
g0
(g24
g25
(dp8063
I00
I29
sI01
I16
stp8064
Rp8065
(dp8066
g22
I45
sg30
Nsg31
Nsg32
Nsbsg33
I3
sg34
F46.5
sbs(g9
g3034
tp8067
g0
(g17
g2
Ntp8068
Rp8069
(dp8070
g21
F0.5
sg22
I45
sg23
g0
(g24
g25
(dp8071
I00
I31
sI01
I14
stp8072
Rp8073
(dp8074
g22
I45
sg30
Nsg31
Nsg32
Nsbsg33
I3
sg34
F46.5
sbs(g10
g1818
tp8075
g0
(g17
g2
Ntp8076
Rp8077
(dp8078
g21
F0.5
sg22
I45
sg23
g0
(g24
g25
(dp8079
I00
I39
sI01
I6
stp8080
Rp8081
(dp8082
g22
I45
sg30
Nsg31
Nsg32
Nsbsg33
I3
sg34
F46.5
sbs(g12
g784
tp8083
g0
(g17
g2
Ntp8084
Rp8085
(dp8086
g21
F0.5
sg22
I45
sg23
g0
(g24
g25
(dp8087
I00
I25
sI01
I20
stp8088
Rp8089
(dp8090
g22
I45
sg30
Nsg31
Nsg32
Nsbsg33
I3
sg34
F46.5
sbs(g10
g1793
tp8091
g0
(g17
g2
Ntp8092
Rp8093
(dp8094
g21
F0.5
sg22
I45
sg23
g0
(g24
g25
(dp8095
I00
I20
sI01
I25
stp8096
Rp8097
(dp8098
g22
I45
sg30
Nsg31
Nsg32
Nsbsg33
I3
sg34
F46.5
sbs(g10
g2164
tp8099
g0
(g17
g2
Ntp8100
Rp8101
(dp8102
g21
F0.5
sg22
I45
sg23
g0
(g24
g25
(dp8103
I00
I30
sI01
I15
stp8104
Rp8105
(dp8106
g22
I45
sg30
Nsg31
Nsg32
Nsbsg33
I3
sg34
F46.5
sbs(g9
g4003
tp8107
g0
(g17
g2
Ntp8108
Rp8109
(dp8110
g21
F0.5
sg22
I45
sg23
g0
(g24
g25
(dp8111
I00
I38
sI01
I7
stp8112
Rp8113
(dp8114
g22
I45
sg30
Nsg31
Nsg32
Nsbsg33
I3
sg34
F46.5
sbs(g8
g1537
tp8115
g0
(g17
g2
Ntp8116
Rp8117
(dp8118
g21
F0.5
sg22
I45
sg23
g0
(g24
g25
(dp8119
I00
I45
stp8120
Rp8121
(dp8122
g22
I45
sg30
Nsg31
Nsg32
Nsbsg33
I3
sg34
F46.5
sbs(g9
g664
tp8123
g0
(g17
g2
Ntp8124
Rp8125
(dp8126
g21
F0.5
sg22
I45
sg23
g0
(g24
g25
(dp8127
I00
I38
sI01
I7
stp8128
Rp8129
(dp8130
g22
I45
sg30
Nsg31
Nsg32
Nsbsg33
I3
sg34
F46.5
sbs(g8
g1009
tp8131
g0
(g17
g2
Ntp8132
Rp8133
(dp8134
g21
F0.5
sg22
I45
sg23
g0
(g24
g25
(dp8135
I00
I45
stp8136
Rp8137
(dp8138
g22
I45
sg30
Nsg31
Nsg32
Nsbsg33
I3
sg34
F46.5
sbs(g9
g1245
tp8139
g0
(g17
g2
Ntp8140
Rp8141
(dp8142
g21
F0.5
sg22
I45
sg23
g0
(g24
g25
(dp8143
I00
I28
sI01
I17
stp8144
Rp8145
(dp8146
g22
I45
sg30
Nsg31
Nsg32
Nsbsg33
I3
sg34
F46.5
sbs(g11
g463
tp8147
g0
(g17
g2
Ntp8148
Rp8149
(dp8150
g21
F0.5
sg22
I45
sg23
g0
(g24
g25
(dp8151
I00
I44
sI01
I1
stp8152
Rp8153
(dp8154
g22
I45
sg30
Nsg31
Nsg32
Nsbsg33
I3
sg34
F46.5
sbs(g10
g249
tp8155
g0
(g17
g2
Ntp8156
Rp8157
(dp8158
g21
F0.5
sg22
I45
sg23
g0
(g24
g25
(dp8159
I00
I45
stp8160
Rp8161
(dp8162
g22
I45
sg30
Nsg31
Nsg32
Nsbsg33
I3
sg34
F46.5
sbs(g12
g2366
tp8163
g0
(g17
g2
Ntp8164
Rp8165
(dp8166
g21
F0.5
sg22
I45
sg23
g0
(g24
g25
(dp8167
I00
I37
sI01
I8
stp8168
Rp8169
(dp8170
g22
I45
sg30
Nsg31
Nsg32
Nsbsg33
I3
sg34
F46.5
sbs(g11
g516
tp8171
g0
(g17
g2
Ntp8172
Rp8173
(dp8174
g21
F0.5
sg22
I45
sg23
g0
(g24
g25
(dp8175
I00
I44
sI01
I1
stp8176
Rp8177
(dp8178
g22
I45
sg30
Nsg31
Nsg32
Nsbsg33
I3
sg34
F46.5
sbs(g10
g991
tp8179
g0
(g17
g2
Ntp8180
Rp8181
(dp8182
g21
F0.5
sg22
I45
sg23
g0
(g24
g25
(dp8183
I00
I45
stp8184
Rp8185
(dp8186
g22
I45
sg30
Nsg31
Nsg32
Nsbsg33
I3
sg34
F46.5
sbs(g11
g1478
tp8187
g0
(g17
g2
Ntp8188
Rp8189
(dp8190
g21
F0.5
sg22
I45
sg23
g0
(g24
g25
(dp8191
I00
I39
sI01
I6
stp8192
Rp8193
(dp8194
g22
I45
sg30
Nsg31
Nsg32
Nsbsg33
I3
sg34
F46.5
sbs(g12
g116
tp8195
g0
(g17
g2
Ntp8196
Rp8197
(dp8198
g21
F0.5
sg22
I45
sg23
g0
(g24
g25
(dp8199
I00
I45
stp8200
Rp8201
(dp8202
g22
I45
sg30
Nsg31
Nsg32
Nsbsg33
I3
sg34
F46.5
sbs(g10
g3581
tp8203
g0
(g17
g2
Ntp8204
Rp8205
(dp8206
g21
F0.5
sg22
I45
sg23
g0
(g24
g25
(dp8207
I00
I45
stp8208
Rp8209
(dp8210
g22
I45
sg30
Nsg31
Nsg32
Nsbsg33
I3
sg34
F46.5
sbs(g8
g2483
tp8211
g0
(g17
g2
Ntp8212
Rp8213
(dp8214
g21
F0.5
sg22
I45
sg23
g0
(g24
g25
(dp8215
I00
I45
stp8216
Rp8217
(dp8218
g22
I45
sg30
Nsg31
Nsg32
Nsbsg33
I3
sg34
F46.5
sbs(g9
g655
tp8219
g0
(g17
g2
Ntp8220
Rp8221
(dp8222
g21
F0.5
sg22
I45
sg23
g0
(g24
g25
(dp8223
I00
I45
stp8224
Rp8225
(dp8226
g22
I45
sg30
Nsg31
Nsg32
Nsbsg33
I3
sg34
F46.5
sbs(g10
g3336
tp8227
g0
(g17
g2
Ntp8228
Rp8229
(dp8230
g21
F0.5
sg22
I45
sg23
g0
(g24
g25
(dp8231
I00
I41
sI01
I4
stp8232
Rp8233
(dp8234
g22
I45
sg30
Nsg31
Nsg32
Nsbsg33
I3
sg34
F46.5
sbs(g8
g2599
tp8235
g0
(g17
g2
Ntp8236
Rp8237
(dp8238
g21
F0.5
sg22
I45
sg23
g0
(g24
g25
(dp8239
I00
I40
sI01
I5
stp8240
Rp8241
(dp8242
g22
I45
sg30
Nsg31
Nsg32
Nsbsg33
I3
sg34
F46.5
sbs(g10
g3547
tp8243
g0
(g17
g2
Ntp8244
Rp8245
(dp8246
g21
F0.5
sg22
I45
sg23
g0
(g24
g25
(dp8247
I00
I45
stp8248
Rp8249
(dp8250
g22
I45
sg30
Nsg31
Nsg32
Nsbsg33
I3
sg34
F46.5
sbs(g11
g2993
tp8251
g0
(g17
g2
Ntp8252
Rp8253
(dp8254
g21
F0.5
sg22
I45
sg23
g0
(g24
g25
(dp8255
I00
I1
sI01
I44
stp8256
Rp8257
(dp8258
g22
I45
sg30
Nsg31
Nsg32
Nsbsg33
I3
sg34
F46.5
sbs(g11
g4229
tp8259
g0
(g17
g2
Ntp8260
Rp8261
(dp8262
g21
F0.5
sg22
I45
sg23
g0
(g24
g25
(dp8263
I00
I45
stp8264
Rp8265
(dp8266
g22
I45
sg30
Nsg31
Nsg32
Nsbsg33
I3
sg34
F46.5
sbs(g9
g62
tp8267
g0
(g17
g2
Ntp8268
Rp8269
(dp8270
g21
F0.5
sg22
I45
sg23
g0
(g24
g25
(dp8271
I00
I45
stp8272
Rp8273
(dp8274
g22
I45
sg30
Nsg31
Nsg32
Nsbsg33
I3
sg34
F46.5
sbs(g11
g6330
tp8275
g0
(g17
g2
Ntp8276
Rp8277
(dp8278
g21
F0.5
sg22
I45
sg23
g0
(g24
g25
(dp8279
I00
I44
sI01
I1
stp8280
Rp8281
(dp8282
g22
I45
sg30
Nsg31
Nsg32
Nsbsg33
I3
sg34
F46.5
sbs(g11
g973
tp8283
g0
(g17
g2
Ntp8284
Rp8285
(dp8286
g21
F0.5
sg22
I45
sg23
g0
(g24
g25
(dp8287
I00
I44
sI01
I1
stp8288
Rp8289
(dp8290
g22
I45
sg30
Nsg31
Nsg32
Nsbsg33
I3
sg34
F46.5
sbs(g12
g1767
tp8291
g0
(g17
g2
Ntp8292
Rp8293
(dp8294
g21
F0.5
sg22
I45
sg23
g0
(g24
g25
(dp8295
I00
I14
sI01
I31
stp8296
Rp8297
(dp8298
g22
I45
sg30
Nsg31
Nsg32
Nsbsg33
I3
sg34
F46.5
sbs(g9
g2625
tp8299
g0
(g17
g2
Ntp8300
Rp8301
(dp8302
g21
F0.5
sg22
I45
sg23
g0
(g24
g25
(dp8303
I00
I1
sI01
I44
stp8304
Rp8305
(dp8306
g22
I45
sg30
Nsg31
Nsg32
Nsbsg33
I3
sg34
F46.5
sbs(g10
g2054
tp8307
g0
(g17
g2
Ntp8308
Rp8309
(dp8310
g21
F0.5
sg22
I45
sg23
g0
(g24
g25
(dp8311
I00
I20
sI01
I25
stp8312
Rp8313
(dp8314
g22
I45
sg30
Nsg31
Nsg32
Nsbsg33
I3
sg34
F46.5
sbs(g11
g991
tp8315
g0
(g17
g2
Ntp8316
Rp8317
(dp8318
g21
F0.5
sg22
I45
sg23
g0
(g24
g25
(dp8319
I00
I41
sI01
I4
stp8320
Rp8321
(dp8322
g22
I45
sg30
Nsg31
Nsg32
Nsbsg33
I3
sg34
F46.5
sbs(g12
g71
tp8323
g0
(g17
g2
Ntp8324
Rp8325
(dp8326
g21
F0.5
sg22
I45
sg23
g0
(g24
g25
(dp8327
I00
I45
stp8328
Rp8329
(dp8330
g22
I45
sg30
Nsg31
Nsg32
Nsbsg33
I3
sg34
F46.5
sbs(g9
g1606
tp8331
g0
(g17
g2
Ntp8332
Rp8333
(dp8334
g21
F0.5
sg22
I45
sg23
g0
(g24
g25
(dp8335
I00
I45
stp8336
Rp8337
(dp8338
g22
I45
sg30
Nsg31
Nsg32
Nsbsg33
I3
sg34
F46.5
sbs(g8
g4028
tp8339
g0
(g17
g2
Ntp8340
Rp8341
(dp8342
g21
F0.5
sg22
I45
sg23
g0
(g24
g25
(dp8343
I00
I17
sI01
I28
stp8344
Rp8345
(dp8346
g22
I45
sg30
Nsg31
Nsg32
Nsbsg33
I3
sg34
F46.5
sbs(g11
g2265
tp8347
g0
(g17
g2
Ntp8348
Rp8349
(dp8350
g21
F0.5
sg22
I45
sg23
g0
(g24
g25
(dp8351
I00
I30
sI01
I15
stp8352
Rp8353
(dp8354
g22
I45
sg30
Nsg31
Nsg32
Nsbsg33
I3
sg34
F46.5
sbs(g8
g311
tp8355
g0
(g17
g2
Ntp8356
Rp8357
(dp8358
g21
F0.5
sg22
I45
sg23
g0
(g24
g25
(dp8359
I00
I30
sI01
I15
stp8360
Rp8361
(dp8362
g22
I45
sg30
Nsg31
Nsg32
Nsbsg33
I3
sg34
F46.5
sbs(g10
g793
tp8363
g0
(g17
g2
Ntp8364
Rp8365
(dp8366
g21
F0.5
sg22
I45
sg23
g0
(g24
g25
(dp8367
I00
I45
stp8368
Rp8369
(dp8370
g22
I45
sg30
Nsg31
Nsg32
Nsbsg33
I3
sg34
F46.5
sbs(g10
g1981
tp8371
g0
(g17
g2
Ntp8372
Rp8373
(dp8374
g21
F0.5
sg22
I45
sg23
g0
(g24
g25
(dp8375
I00
I45
stp8376
Rp8377
(dp8378
g22
I45
sg30
Nsg31
Nsg32
Nsbsg33
I3
sg34
F46.5
sbs(g11
g498
tp8379
g0
(g17
g2
Ntp8380
Rp8381
(dp8382
g21
F0.5
sg22
I45
sg23
g0
(g24
g25
(dp8383
I00
I45
stp8384
Rp8385
(dp8386
g22
I45
sg30
Nsg31
Nsg32
Nsbsg33
I3
sg34
F46.5
sbs(g11
g2071
tp8387
g0
(g17
g2
Ntp8388
Rp8389
(dp8390
g21
F0.5
sg22
I45
sg23
g0
(g24
g25
(dp8391
I00
I43
sI01
I2
stp8392
Rp8393
(dp8394
g22
I45
sg30
Nsg31
Nsg32
Nsbsg33
I3
sg34
F46.5
sbs(g8
g2383
tp8395
g0
(g17
g2
Ntp8396
Rp8397
(dp8398
g21
F0.5
sg22
I45
sg23
g0
(g24
g25
(dp8399
I00
I45
stp8400
Rp8401
(dp8402
g22
I45
sg30
Nsg31
Nsg32
Nsbsg33
I3
sg34
F46.5
sbs(g10
g2599
tp8403
g0
(g17
g2
Ntp8404
Rp8405
(dp8406
g21
F0.5
sg22
I45
sg23
g0
(g24
g25
(dp8407
I00
I36
sI01
I9
stp8408
Rp8409
(dp8410
g22
I45
sg30
Nsg31
Nsg32
Nsbsg33
I3
sg34
F46.5
sbs(g11
g2299
tp8411
g0
(g17
g2
Ntp8412
Rp8413
(dp8414
g21
F0.5
sg22
I45
sg23
g0
(g24
g25
(dp8415
I00
I26
sI01
I19
stp8416
Rp8417
(dp8418
g22
I45
sg30
Nsg31
Nsg32
Nsbsg33
I3
sg34
F46.5
sbs(g9
g1027
tp8419
g0
(g17
g2
Ntp8420
Rp8421
(dp8422
g21
F0.5
sg22
I45
sg23
g0
(g24
g25
(dp8423
I00
I45
stp8424
Rp8425
(dp8426
g22
I45
sg30
Nsg31
Nsg32
Nsbsg33
I3
sg34
F46.5
sbs(g10
g2927
tp8427
g0
(g17
g2
Ntp8428
Rp8429
(dp8430
g21
F0.5
sg22
I45
sg23
g0
(g24
g25
(dp8431
I00
I43
sI01
I2
stp8432
Rp8433
(dp8434
g22
I45
sg30
Nsg31
Nsg32
Nsbsg33
I3
sg34
F46.5
sbs(g12
g1289
tp8435
g0
(g17
g2
Ntp8436
Rp8437
(dp8438
g21
F0.5
sg22
I45
sg23
g0
(g24
g25
(dp8439
I00
I37
sI01
I8
stp8440
Rp8441
(dp8442
g22
I45
sg30
Nsg31
Nsg32
Nsbsg33
I3
sg34
F46.5
sbs(g10
g525
tp8443
g0
(g17
g2
Ntp8444
Rp8445
(dp8446
g21
F0.5
sg22
I45
sg23
g0
(g24
g25
(dp8447
I00
I32
sI01
I13
stp8448
Rp8449
(dp8450
g22
I45
sg30
Nsg31
Nsg32
Nsbsg33
I3
sg34
F46.5
sbs(g8
g1245
tp8451
g0
(g17
g2
Ntp8452
Rp8453
(dp8454
g21
F0.5
sg22
I45
sg23
g0
(g24
g25
(dp8455
I00
I45
stp8456
Rp8457
(dp8458
g22
I45
sg30
Nsg31
Nsg32
Nsbsg33
I3
sg34
F46.5
sbs(g11
g1071
tp8459
g0
(g17
g2
Ntp8460
Rp8461
(dp8462
g21
F0.5
sg22
I45
sg23
g0
(g24
g25
(dp8463
I00
I41
sI01
I4
stp8464
Rp8465
(dp8466
g22
I45
sg30
Nsg31
Nsg32
Nsbsg33
I3
sg34
F46.5
sbs(g12
g44
tp8467
g0
(g17
g2
Ntp8468
Rp8469
(dp8470
g21
F0.5
sg22
I45
sg23
g0
(g24
g25
(dp8471
I00
I39
sI01
I6
stp8472
Rp8473
(dp8474
g22
I45
sg30
Nsg31
Nsg32
Nsbsg33
I3
sg34
F46.5
sbs(g9
g930
tp8475
g0
(g17
g2
Ntp8476
Rp8477
(dp8478
g21
F0.5
sg22
I45
sg23
g0
(g24
g25
(dp8479
I00
I45
stp8480
Rp8481
(dp8482
g22
I45
sg30
Nsg31
Nsg32
Nsbsg33
I3
sg34
F46.5
sbs(g12
g284
tp8483
g0
(g17
g2
Ntp8484
Rp8485
(dp8486
g21
F0.5
sg22
I45
sg23
g0
(g24
g25
(dp8487
I00
I43
sI01
I2
stp8488
Rp8489
(dp8490
g22
I45
sg30
Nsg31
Nsg32
Nsbsg33
I3
sg34
F46.5
sbs(g10
g152
tp8491
g0
(g17
g2
Ntp8492
Rp8493
(dp8494
g21
F0.5
sg22
I45
sg23
g0
(g24
g25
(dp8495
I00
I27
sI01
I18
stp8496
Rp8497
(dp8498
g22
I45
sg30
Nsg31
Nsg32
Nsbsg33
I3
sg34
F46.5
sbs(g10
g1194
tp8499
g0
(g17
g2
Ntp8500
Rp8501
(dp8502
g21
F0.5
sg22
I45
sg23
g0
(g24
g25
(dp8503
I00
I45
stp8504
Rp8505
(dp8506
g22
I45
sg30
Nsg31
Nsg32
Nsbsg33
I3
sg34
F46.5
sbs(g11
g767
tp8507
g0
(g17
g2
Ntp8508
Rp8509
(dp8510
g21
F0.5
sg22
I45
sg23
g0
(g24
g25
(dp8511
I00
I45
stp8512
Rp8513
(dp8514
g22
I45
sg30
Nsg31
Nsg32
Nsbsg33
I3
sg34
F46.5
sbs(g11
g2634
tp8515
g0
(g17
g2
Ntp8516
Rp8517
(dp8518
g21
F0.5
sg22
I45
sg23
g0
(g24
g25
(dp8519
I00
I45
stp8520
Rp8521
(dp8522
g22
I45
sg30
Nsg31
Nsg32
Nsbsg33
I3
sg34
F46.5
sbs(g11
g699
tp8523
g0
(g17
g2
Ntp8524
Rp8525
(dp8526
g21
F0.5
sg22
I45
sg23
g0
(g24
g25
(dp8527
I00
I37
sI01
I8
stp8528
Rp8529
(dp8530
g22
I45
sg30
Nsg31
Nsg32
Nsbsg33
I3
sg34
F46.5
sbs(g9
g1044
tp8531
g0
(g17
g2
Ntp8532
Rp8533
(dp8534
g21
F0.5
sg22
I45
sg23
g0
(g24
g25
(dp8535
I00
I41
sI01
I4
stp8536
Rp8537
(dp8538
g22
I45
sg30
Nsg31
Nsg32
Nsbsg33
I3
sg34
F46.5
sbs(g8
g1228
tp8539
g0
(g17
g2
Ntp8540
Rp8541
(dp8542
g21
F0.5
sg22
I45
sg23
g0
(g24
g25
(dp8543
I00
I43
sI01
I2
stp8544
Rp8545
(dp8546
g22
I45
sg30
Nsg31
Nsg32
Nsbsg33
I3
sg34
F46.5
sbs(g10
g1390
tp8547
g0
(g17
g2
Ntp8548
Rp8549
(dp8550
g21
F0.5
sg22
I45
sg23
g0
(g24
g25
(dp8551
I00
I25
sI01
I20
stp8552
Rp8553
(dp8554
g22
I45
sg30
Nsg31
Nsg32
Nsbsg33
I3
sg34
F46.5
sbs(g12
g2198
tp8555
g0
(g17
g2
Ntp8556
Rp8557
(dp8558
g21
F0.5
sg22
I45
sg23
g0
(g24
g25
(dp8559
I00
I34
sI01
I11
stp8560
Rp8561
(dp8562
g22
I45
sg30
Nsg31
Nsg32
Nsbsg33
I3
sg34
F46.5
sbs(g11
g1062
tp8563
g0
(g17
g2
Ntp8564
Rp8565
(dp8566
g21
F0.5
sg22
I45
sg23
g0
(g24
g25
(dp8567
I00
I43
sI01
I2
stp8568
Rp8569
(dp8570
g22
I45
sg30
Nsg31
Nsg32
Nsbsg33
I3
sg34
F46.5
sbs(g11
g4462
tp8571
g0
(g17
g2
Ntp8572
Rp8573
(dp8574
g21
F0.5
sg22
I45
sg23
g0
(g24
g25
(dp8575
I00
I45
stp8576
Rp8577
(dp8578
g22
I45
sg30
Nsg31
Nsg32
Nsbsg33
I3
sg34
F46.5
sbs(g12
g1272
tp8579
g0
(g17
g2
Ntp8580
Rp8581
(dp8582
g21
F0.5
sg22
I45
sg23
g0
(g24
g25
(dp8583
I00
I44
sI01
I1
stp8584
Rp8585
(dp8586
g22
I45
sg30
Nsg31
Nsg32
Nsbsg33
I3
sg34
F46.5
sbs(g8
g204
tp8587
g0
(g17
g2
Ntp8588
Rp8589
(dp8590
g21
F0.5
sg22
I45
sg23
g0
(g24
g25
(dp8591
I00
I45
stp8592
Rp8593
(dp8594
g22
I45
sg30
Nsg31
Nsg32
Nsbsg33
I3
sg34
F46.5
sbssS'_label_probdist'
p8595
g0
(g17
g2
Ntp8596
Rp8597
(dp8598
g21
F0.5
sg22
I225
sg23
g0
(g24
g25
(dp8599
g10
I45
sg11
I45
sg9
I45
sg12
I45
sg8
I45
stp8600
Rp8601
(dp8602
g22
I225
sg30
Nsg31
(lp8603
(g8
I45
tp8604
a(g9
I45
tp8605
a(g10
I45
tp8606
a(g11
I45
tp8607
a(g12
I45
tp8608
asg32
Nsbsg33
I5
sg34
F227.5
sbsb(lp8609
g2927
ag125
ag3547
ag2256
ag1245
ag733
ag1097
ag1298
ag2910
ag35
ag982
ag1460
ag1724
ag15
ag98
ag1027
ag1818
ag481
ag2747
ag2820
ag1080
ag1843
ag383
ag1194
ag3254
ag870
ag1451
ag716
ag2829
ag3718
ag222
ag2129
ag767
ag1348
ag2265
ag249
ag89
ag1981
ag231
ag1053
ag204
ag1150
ag947
ag1520
ag1159
ag1071
ag418
ag213
ag1537
ag498
ag699
ag445
ag3426
ag810
ag1442
ag1106
ag655
ag134
ag1115
ag392
ag1741
ag1390
ag1044
ag2616
ag152
ag1469
ag284
ag1315
ag888
ag107
ag560
ag320
ag1606
ag187
ag329
ag793
ag240
ag2173
ag1691
ag1546
ag1589
ag1417
ag1623
ag4028
ag169
ag2299
ag682
ag879
ag1018
ag2282
ag2574
ag1185
ag409
ag2054
ag1674
ag5601
ag472
ag784
ag3849
ag311
ag365
ag1793
ag3099
ag1211
ag2524
ag2164
ag1767
ag3034
ag2474
ag1141
ag1263
ag3327
ag2993
ag2625
ag1750
ag2231
ag3783
ag525
ag930
ag53
ag673
ag293
ag1580
ag356
ag3417
ag258
ag4743
ag427
ag1272
ag2976
ag1254
ag374
ag338
ag1665
ag1640
ag71
ag1176
ag2465
ag62
ag507
ag637
ag1555
ag991
ag3157
ag143
ag664
ag551
ag3581
ag620
ag463
ag1408
ag3866
ag80
ag742
ag1892
ag2565
ag845
ag2456
ag1009
ag646
ag347
ag454
ag3132
ag302
ag1132
ag577
ag2198
ag2383
ag2104
ag1478
ag178
ag5208
ag4229
ag1495
ag2483
ag1289
ag4462
ag2071
ag1357
ag2634
ag2138
ag516
ag2349
ag1776
ag44
ag116
ag827
ag973
ag836
ag594
ag4003
ag1228
ag603
ag6330
ag905
ag1399
ag3572
ag1000
ag1062
ag534
ag267
ag2599
ag3816
ag2316
ag964
ag3336
ag2366
ag2147
ag436
atp8610
.