((lp0
((dp1
S'tri:(he,said,.)>0'
p2
F0.3728
sS"tri:(the,country,'s)>0"
p3
F0.0616
sS"tri:(,,'',said)>0"
p4
F0.5708
sS'tri:(million,(,$)>0'
p5
F0.014
sS'tri:(corp,.,,)>0'
p6
F0.068
sS"tri:('',he,said)>0"
p7
F0.3812
sS"tri:('',said,one)>0"
p8
F0.092
sS"tri:(.,'',the)>0"
p9
F0.4308
sS'tri:(business,machines,corp)>0'
p10
F0.0284
sS'tri:(.,(,$)>0'
p11
F0.1184
sS'tri:(in,hong,kong)>0'
p12
F0.0796
sS'tri:(minister,vaclav,klaus)>0'
p13
F0.0248
sS'tri:(hong,kong,,)>0'
p14
F0.0552
sS'tri:(,,mich,.)>0'
p15
F0.0224
sS'tri:(a,.s,.)>0'
p16
F0.0132
sS'tri:(general,motors,corp)>0'
p17
F0.0336
sS'tri:(.,he,said)>0'
p18
F0.1128
sS'tri:(analyst,said,.)>0'
p19
F0.0356
sS'tri:(of,hong,kong)>0'
p20
F0.0464
sS'tri:(inc,.,,)>0'
p21
F0.0688
sS'tri:(the,newspaper,said)>0'
p22
F0.0112
sS'tri:(mich,.,,)>0'
p23
F0.0196
sS'tri:(,,such,as)>0'
p24
F0.0564
sS'tri:(billion,(,$)>0'
p25
F0.024
sS'tri:(in,the,first)>0'
p26
F0.1276
sS'tri:(.,the,company)>0'
p27
F0.1096
sS'tri:(analysts,said,.)>0'
p28
F0.1076
sS'tri:(a,year,ago)>0'
p29
F0.0668
sS'tri:(million,pounds,()>0'
p30
F0.0596
sS'tri:(the,end,of)>0'
p31
F0.1792
sS'tri:(in,the,second)>0'
p32
F0.052
sS'tri:(bank,of,canada)>0'
p33
F0.014
sS'tri:(of,a,$)>0'
p34
F0.0344
sS"tri:(ivory,coast,'s)>0"
p35
F0.0136
sS'tri:(.,at,&)>0'
p36
F0.0168
sS'tri:(171,542,5017)>0'
p37
F0.0008
sS'tri:(newsroom,tel+44,171)>0'
p38
F0.0192
sS'tri:(to,close,at)>0'
p39
F0.0304
sS'tri:(to,a,$)>0'
p40
F0.026
sS'tri:(tel+44,171,542)>0'
p41
F0.0164
sS"tri:(the,automaker,'s)>0"
p42
F0.0144
sS"tri:(,,'',he)>0"
p43
F0.446
sS'tri:(the,first,round)>0'
p44
F0.0144
sS"tri:(.,'',i)>0"
p45
F0.2348
sS'tri:(pence,per,share)>0'
p46
F0.0308
sS'tri:(the,indonesian,government)>0'
p47
F0.012
sS"tri:(the,world,'s)>0"
p48
F0.1256
sS'tri:(&,amp,;)>0'
p49
F0.194
sS"tri:(.,'',we)>0"
p50
F0.3204
sS'tri:(,,he,said)>0'
p51
F0.1564
sS'tri:(the,toronto,stock)>0'
p52
F0.0332
sS'tri:(,,analysts,said)>0'
p53
F0.1272
sS'tri:(international,business,machines)>0'
p54
F0.0284
sS'tri:(to,c,$)>0'
p55
F0.026
sS'tri:(trillion,yen,()>0'
p56
F0.01
sS'tri:(cents,a,share)>0'
p57
F0.0312
sS'tri:(ford,motor,co)>0'
p58
F0.0328
sS'tri:(billion,yen,()>0'
p59
F0.0104
sS'tri:(is,expected,to)>0'
p60
F0.1268
sS"tri:(the,company,'s)>0"
p61
F0.1392
sS'tri:(cargo,newsroom,tel+44)>0'
p62
F0.0192
sS'tri:(amp,;,t)>0'
p63
F0.0468
sS'tri:(.,norfolk,southern)>0'
p64
F0.0048
sS"tri:(,,'',the)>0"
p65
F0.1308
sS"tri:(the,group,'s)>0"
p66
F0.0528
sS'tri:(a,share,,)>0'
p67
F0.0444
sS'tri:(yen,(,$)>0'
p68
F0.0144
sS'tri:(.,air,france)>0'
p69
F0.0064
sS'tri:(at,&,amp)>0'
p70
F0.0468
sS'tri:(the,united,states)>0'
p71
F0.182
sS'tri:(said,.,the)>0'
p72
F0.2136
sS'tri:(300,composite,index)>0'
p73
F0.0172
sS"tri:(hong,kong,'s)>0"
p74
F0.052
sS"tri:(said,.,'')>0"
p75
F0.2824
sS'tri:(pounds,(,$)>0'
p76
F0.096
sS'tri:(air,cargo,newsroom)>0'
p77
F0.0196
s(dp78
S'AlexanderSmith'
p79
(dp80
g2
F0.36
sg3
F0.02
sg4
F0.28
sg5
F0.0
sg6
F0.0
sg7
F0.4
sg8
F0.08
sg9
F0.46
sg10
F0.0
sg11
F0.38
sg12
F0.0
sg13
F0.0
sg14
F0.0
sg15
F0.0
sg16
F0.0
sg17
F0.0
sg18
F0.2
sg19
F0.04
sg20
F0.0
sg21
F0.0
sg22
F0.02
sg23
F0.0
sg24
F0.02
sg25
F0.0
sg26
F0.06
sg27
F0.02
sg28
F0.02
sg29
F0.02
sg30
F0.3
sg31
F0.14
sg32
F0.06
sg33
F0.0
sg34
F0.0
sg35
F0.0
sg36
F0.0
sg37
F0.0
sg38
F0.0
sg39
F0.02
sg40
F0.0
sg41
F0.0
sg42
F0.0
sg43
F0.56
sg44
F0.0
sg45
F0.22
sg46
F0.18
sg47
F0.0
sg48
F0.14
sg49
F0.28
sg50
F0.46
sg51
F0.14
sg52
F0.0
sg53
F0.02
sg54
F0.0
sg55
F0.0
sg56
F0.0
sg57
F0.0
sg58
F0.0
sg59
F0.0
sg60
F0.08
sg61
F0.14
sg62
F0.0
sg63
F0.0
sg64
F0.0
sg65
F0.18
sg66
F0.16
sg67
F0.0
sg68
F0.0
sg69
F0.0
sg70
F0.0
sg71
F0.12
sg72
F0.26
sg73
F0.0
sg74
F0.04
sg75
F0.16
sg76
F0.56
sg77
F0.0
ssS'WilliamKazer'
p81
(dp82
g2
F0.5
sg3
F0.06
sg4
F0.72
sg5
F0.02
sg6
F0.0
sg7
F0.58
sg8
F0.0
sg9
F0.52
sg10
F0.0
sg11
F0.02
sg12
F0.16
sg13
F0.0
sg14
F0.04
sg15
F0.0
sg16
F0.0
sg17
F0.0
sg18
F0.08
sg19
F0.0
sg20
F0.14
sg21
F0.0
sg22
F0.04
sg23
F0.0
sg24
F0.04
sg25
F0.0
sg26
F0.16
sg27
F0.04
sg28
F0.08
sg29
F0.04
sg30
F0.0
sg31
F0.24
sg32
F0.0
sg33
F0.0
sg34
F0.0
sg35
F0.0
sg36
F0.0
sg37
F0.0
sg38
F0.0
sg39
F0.0
sg40
F0.0
sg41
F0.0
sg42
F0.0
sg43
F0.66
sg44
F0.0
sg45
F0.18
sg46
F0.0
sg47
F0.0
sg48
F0.04
sg49
F0.02
sg50
F0.48
sg51
F0.16
sg52
F0.0
sg53
F0.1
sg54
F0.0
sg55
F0.0
sg56
F0.0
sg57
F0.0
sg58
F0.0
sg59
F0.0
sg60
F0.06
sg61
F0.1
sg62
F0.0
sg63
F0.0
sg64
F0.0
sg65
F0.2
sg66
F0.02
sg67
F0.0
sg68
F0.0
sg69
F0.0
sg70
F0.0
sg71
F0.34
sg72
F0.24
sg73
F0.0
sg74
F0.02
sg75
F0.22
sg76
F0.0
sg77
F0.0
ssS'MarcelMichelson'
p83
(dp84
g2
F0.28
sg3
F0.08
sg4
F0.26
sg5
F0.0
sg6
F0.0
sg7
F0.34
sg8
F0.0
sg9
F0.44
sg10
F0.02
sg11
F0.34
sg12
F0.0
sg13
F0.0
sg14
F0.0
sg15
F0.0
sg16
F0.0
sg17
F0.0
sg18
F0.24
sg19
F0.0
sg20
F0.0
sg21
F0.0
sg22
F0.0
sg23
F0.0
sg24
F0.04
sg25
F0.0
sg26
F0.28
sg27
F0.14
sg28
F0.0
sg29
F0.02
sg30
F0.0
sg31
F0.28
sg32
F0.0
sg33
F0.0
sg34
F0.0
sg35
F0.0
sg36
F0.08
sg37
F0.0
sg38
F0.0
sg39
F0.0
sg40
F0.0
sg41
F0.0
sg42
F0.0
sg43
F0.46
sg44
F0.0
sg45
F0.22
sg46
F0.0
sg47
F0.0
sg48
F0.2
sg49
F0.14
sg50
F0.18
sg51
F0.0
sg52
F0.0
sg53
F0.0
sg54
F0.02
sg55
F0.0
sg56
F0.0
sg57
F0.0
sg58
F0.0
sg59
F0.0
sg60
F0.28
sg61
F0.14
sg62
F0.0
sg63
F0.12
sg64
F0.0
sg65
F0.22
sg66
F0.14
sg67
F0.02
sg68
F0.0
sg69
F0.1
sg70
F0.12
sg71
F0.18
sg72
F0.12
sg73
F0.0
sg74
F0.0
sg75
F0.26
sg76
F0.0
sg77
F0.0
ssS'KirstinRidley'
p85
(dp86
g2
F0.3
sg3
F0.06
sg4
F0.6
sg5
F0.0
sg6
F0.0
sg7
F0.3
sg8
F0.16
sg9
F0.32
sg10
F0.02
sg11
F0.48
sg12
F0.06
sg13
F0.0
sg14
F0.04
sg15
F0.0
sg16
F0.0
sg17
F0.0
sg18
F0.02
sg19
F0.0
sg20
F0.0
sg21
F0.02
sg22
F0.0
sg23
F0.0
sg24
F0.04
sg25
F0.0
sg26
F0.08
sg27
F0.24
sg28
F0.04
sg29
F0.02
sg30
F0.16
sg31
F0.18
sg32
F0.04
sg33
F0.0
sg34
F0.02
sg35
F0.0
sg36
F0.08
sg37
F0.0
sg38
F0.0
sg39
F0.0
sg40
F0.0
sg41
F0.0
sg42
F0.0
sg43
F0.52
sg44
F0.02
sg45
F0.38
sg46
F0.14
sg47
F0.0
sg48
F0.52
sg49
F0.5
sg50
F0.22
sg51
F0.06
sg52
F0.0
sg53
F0.14
sg54
F0.02
sg55
F0.0
sg56
F0.0
sg57
F0.0
sg58
F0.0
sg59
F0.0
sg60
F0.18
sg61
F0.1
sg62
F0.0
sg63
F0.36
sg64
F0.0
sg65
F0.06
sg66
F0.1
sg67
F0.02
sg68
F0.0
sg69
F0.0
sg70
F0.38
sg71
F0.1
sg72
F0.12
sg73
F0.0
sg74
F0.0
sg75
F0.02
sg76
F0.42
sg77
F0.0
ssS'JanLopatka'
p87
(dp88
g2
F0.38
sg3
F0.3
sg4
F0.26
sg5
F0.0
sg6
F0.0
sg7
F0.44
sg8
F0.0
sg9
F0.42
sg10
F0.0
sg11
F0.04
sg12
F0.0
sg13
F0.52
sg14
F0.0
sg15
F0.0
sg16
F0.36
sg17
F0.0
sg18
F0.44
sg19
F0.0
sg20
F0.0
sg21
F0.02
sg22
F0.0
sg23
F0.0
sg24
F0.0
sg25
F0.0
sg26
F0.14
sg27
F0.08
sg28
F0.0
sg29
F0.0
sg30
F0.0
sg31
F0.22
sg32
F0.06
sg33
F0.0
sg34
F0.0
sg35
F0.0
sg36
F0.0
sg37
F0.0
sg38
F0.0
sg39
F0.04
sg40
F0.0
sg41
F0.0
sg42
F0.0
sg43
F0.62
sg44
F0.06
sg45
F0.26
sg46
F0.0
sg47
F0.0
sg48
F0.0
sg49
F0.0
sg50
F0.24
sg51
F0.02
sg52
F0.0
sg53
F0.0
sg54
F0.0
sg55
F0.0
sg56
F0.0
sg57
F0.0
sg58
F0.0
sg59
F0.0
sg60
F0.12
sg61
F0.04
sg62
F0.0
sg63
F0.0
sg64
F0.0
sg65
F0.06
sg66
F0.0
sg67
F0.0
sg68
F0.0
sg69
F0.0
sg70
F0.0
sg71
F0.06
sg72
F0.16
sg73
F0.0
sg74
F0.0
sg75
F0.22
sg76
F0.0
sg77
F0.0
ssS'MichaelConnor'
p89
(dp90
g2
F0.36
sg3
F0.02
sg4
F0.44
sg5
F0.0
sg6
F0.26
sg7
F0.2
sg8
F0.02
sg9
F0.38
sg10
F0.0
sg11
F0.0
sg12
F0.0
sg13
F0.0
sg14
F0.0
sg15
F0.0
sg16
F0.0
sg17
F0.02
sg18
F0.1
sg19
F0.0
sg20
F0.0
sg21
F0.24
sg22
F0.0
sg23
F0.0
sg24
F0.06
sg25
F0.0
sg26
F0.06
sg27
F0.22
sg28
F0.12
sg29
F0.04
sg30
F0.0
sg31
F0.12
sg32
F0.0
sg33
F0.0
sg34
F0.0
sg35
F0.0
sg36
F0.0
sg37
F0.0
sg38
F0.0
sg39
F0.0
sg40
F0.0
sg41
F0.0
sg42
F0.0
sg43
F0.2
sg44
F0.0
sg45
F0.26
sg46
F0.02
sg47
F0.0
sg48
F0.1
sg49
F0.32
sg50
F0.26
sg51
F0.34
sg52
F0.0
sg53
F0.08
sg54
F0.0
sg55
F0.0
sg56
F0.0
sg57
F0.04
sg58
F0.02
sg59
F0.0
sg60
F0.04
sg61
F0.2
sg62
F0.0
sg63
F0.0
sg64
F0.0
sg65
F0.04
sg66
F0.0
sg67
F0.04
sg68
F0.0
sg69
F0.0
sg70
F0.0
sg71
F0.42
sg72
F0.34
sg73
F0.0
sg74
F0.0
sg75
F0.3
sg76
F0.0
sg77
F0.0
ssS'MartinWolk'
p91
(dp92
g2
F0.58
sg3
F0.0
sg4
F0.7
sg5
F0.0
sg6
F0.16
sg7
F0.6
sg8
F0.0
sg9
F0.18
sg10
F0.06
sg11
F0.0
sg12
F0.0
sg13
F0.0
sg14
F0.0
sg15
F0.0
sg16
F0.0
sg17
F0.0
sg18
F0.22
sg19
F0.02
sg20
F0.0
sg21
F0.12
sg22
F0.0
sg23
F0.0
sg24
F0.02
sg25
F0.0
sg26
F0.1
sg27
F0.12
sg28
F0.16
sg29
F0.2
sg30
F0.0
sg31
F0.1
sg32
F0.08
sg33
F0.0
sg34
F0.0
sg35
F0.0
sg36
F0.0
sg37
F0.0
sg38
F0.0
sg39
F0.0
sg40
F0.0
sg41
F0.0
sg42
F0.0
sg43
F0.6
sg44
F0.0
sg45
F0.18
sg46
F0.0
sg47
F0.0
sg48
F0.04
sg49
F0.32
sg50
F0.3
sg51
F0.1
sg52
F0.0
sg53
F0.16
sg54
F0.06
sg55
F0.0
sg56
F0.0
sg57
F0.28
sg58
F0.0
sg59
F0.0
sg60
F0.2
sg61
F0.62
sg62
F0.0
sg63
F0.0
sg64
F0.0
sg65
F0.0
sg66
F0.0
sg67
F0.26
sg68
F0.0
sg69
F0.0
sg70
F0.0
sg71
F0.1
sg72
F0.06
sg73
F0.0
sg74
F0.0
sg75
F0.26
sg76
F0.0
sg77
F0.0
ssS'ToddNissen'
p93
(dp94
g2
F0.48
sg3
F0.0
sg4
F0.58
sg5
F0.0
sg6
F0.16
sg7
F0.48
sg8
F0.0
sg9
F0.3
sg10
F0.0
sg11
F0.0
sg12
F0.0
sg13
F0.0
sg14
F0.0
sg15
F0.46
sg16
F0.0
sg17
F0.56
sg18
F0.08
sg19
F0.0
sg20
F0.0
sg21
F0.16
sg22
F0.0
sg23
F0.36
sg24
F0.12
sg25
F0.0
sg26
F0.04
sg27
F0.22
sg28
F0.04
sg29
F0.22
sg30
F0.0
sg31
F0.12
sg32
F0.04
sg33
F0.0
sg34
F0.02
sg35
F0.0
sg36
F0.0
sg37
F0.0
sg38
F0.0
sg39
F0.0
sg40
F0.0
sg41
F0.0
sg42
F0.18
sg43
F0.48
sg44
F0.02
sg45
F0.18
sg46
F0.0
sg47
F0.0
sg48
F0.06
sg49
F0.18
sg50
F0.28
sg51
F0.2
sg52
F0.0
sg53
F0.12
sg54
F0.0
sg55
F0.0
sg56
F0.0
sg57
F0.06
sg58
F0.6
sg59
F0.0
sg60
F0.2
sg61
F0.2
sg62
F0.0
sg63
F0.0
sg64
F0.0
sg65
F0.04
sg66
F0.0
sg67
F0.06
sg68
F0.0
sg69
F0.0
sg70
F0.0
sg71
F0.24
sg72
F0.12
sg73
F0.0
sg74
F0.0
sg75
F0.06
sg76
F0.0
sg77
F0.0
ssS'PatriciaCommins'
p95
(dp96
g2
F0.08
sg3
F0.0
sg4
F0.52
sg5
F0.0
sg6
F0.02
sg7
F0.1
sg8
F0.0
sg9
F0.56
sg10
F0.0
sg11
F0.0
sg12
F0.02
sg13
F0.0
sg14
F0.02
sg15
F0.0
sg16
F0.0
sg17
F0.0
sg18
F0.08
sg19
F0.0
sg20
F0.0
sg21
F0.12
sg22
F0.0
sg23
F0.0
sg24
F0.12
sg25
F0.0
sg26
F0.16
sg27
F0.2
sg28
F0.32
sg29
F0.24
sg30
F0.0
sg31
F0.08
sg32
F0.04
sg33
F0.0
sg34
F0.0
sg35
F0.0
sg36
F0.0
sg37
F0.0
sg38
F0.0
sg39
F0.0
sg40
F0.02
sg41
F0.0
sg42
F0.0
sg43
F0.26
sg44
F0.0
sg45
F0.3
sg46
F0.0
sg47
F0.0
sg48
F0.02
sg49
F0.26
sg50
F0.34
sg51
F0.08
sg52
F0.0
sg53
F0.36
sg54
F0.0
sg55
F0.0
sg56
F0.0
sg57
F0.12
sg58
F0.0
sg59
F0.0
sg60
F0.2
sg61
F0.2
sg62
F0.0
sg63
F0.0
sg64
F0.0
sg65
F0.06
sg66
F0.0
sg67
F0.24
sg68
F0.0
sg69
F0.0
sg70
F0.0
sg71
F0.36
sg72
F0.18
sg73
F0.0
sg74
F0.0
sg75
F0.32
sg76
F0.0
sg77
F0.0
ssS'KevinMorrison'
p97
(dp98
g2
F0.44
sg3
F0.04
sg4
F0.48
sg5
F0.0
sg6
F0.0
sg7
F0.4
sg8
F0.1
sg9
F0.32
sg10
F0.02
sg11
F0.04
sg12
F0.04
sg13
F0.0
sg14
F0.06
sg15
F0.0
sg16
F0.0
sg17
F0.0
sg18
F0.22
sg19
F0.26
sg20
F0.0
sg21
F0.0
sg22
F0.0
sg23
F0.0
sg24
F0.04
sg25
F0.04
sg26
F0.18
sg27
F0.04
sg28
F0.26
sg29
F0.02
sg30
F0.0
sg31
F0.06
sg32
F0.04
sg33
F0.0
sg34
F0.44
sg35
F0.0
sg36
F0.0
sg37
F0.0
sg38
F0.0
sg39
F0.02
sg40
F0.32
sg41
F0.0
sg42
F0.0
sg43
F0.44
sg44
F0.0
sg45
F0.48
sg46
F0.0
sg47
F0.0
sg48
F0.14
sg49
F0.12
sg50
F0.38
sg51
F0.16
sg52
F0.0
sg53
F0.26
sg54
F0.02
sg55
F0.0
sg56
F0.0
sg57
F0.08
sg58
F0.0
sg59
F0.0
sg60
F0.2
sg61
F0.1
sg62
F0.0
sg63
F0.02
sg64
F0.0
sg65
F0.18
sg66
F0.12
sg67
F0.02
sg68
F0.0
sg69
F0.0
sg70
F0.0
sg71
F0.18
sg72
F0.5
sg73
F0.0
sg74
F0.0
sg75
F0.5
sg76
F0.0
sg77
F0.0
ssS'HeatherScoffield'
p99
(dp100
g2
F0.6
sg3
F0.0
sg4
F0.74
sg5
F0.06
sg6
F0.18
sg7
F0.54
sg8
F0.06
sg9
F0.62
sg10
F0.0
sg11
F0.0
sg12
F0.0
sg13
F0.0
sg14
F0.0
sg15
F0.0
sg16
F0.0
sg17
F0.0
sg18
F0.18
sg19
F0.04
sg20
F0.0
sg21
F0.16
sg22
F0.0
sg23
F0.0
sg24
F0.04
sg25
F0.02
sg26
F0.06
sg27
F0.18
sg28
F0.38
sg29
F0.02
sg30
F0.0
sg31
F0.2
sg32
F0.04
sg33
F0.0
sg34
F0.0
sg35
F0.0
sg36
F0.0
sg37
F0.0
sg38
F0.0
sg39
F0.06
sg40
F0.04
sg41
F0.0
sg42
F0.0
sg43
F0.6
sg44
F0.0
sg45
F0.5
sg46
F0.0
sg47
F0.44
sg48
F0.48
sg49
F0.0
sg50
F0.48
sg51
F0.34
sg52
F0.4
sg53
F0.38
sg54
F0.0
sg55
F0.4
sg56
F0.0
sg57
F0.1
sg58
F0.0
sg59
F0.0
sg60
F0.1
sg61
F0.18
sg62
F0.0
sg63
F0.0
sg64
F0.0
sg65
F0.02
sg66
F0.0
sg67
F0.1
sg68
F0.0
sg69
F0.0
sg70
F0.0
sg71
F0.02
sg72
F0.22
sg73
F0.0
sg74
F0.0
sg75
F0.42
sg76
F0.0
sg77
F0.0
ssS'BradDorfman'
p101
(dp102
g2
F0.44
sg3
F0.02
sg4
F0.82
sg5
F0.0
sg6
F0.16
sg7
F0.4
sg8
F0.06
sg9
F0.42
sg10
F0.0
sg11
F0.0
sg12
F0.0
sg13
F0.0
sg14
F0.0
sg15
F0.02
sg16
F0.0
sg17
F0.04
sg18
F0.06
sg19
F0.02
sg20
F0.0
sg21
F0.2
sg22
F0.0
sg23
F0.0
sg24
F0.04
sg25
F0.0
sg26
F0.06
sg27
F0.26
sg28
F0.3
sg29
F0.36
sg30
F0.0
sg31
F0.14
sg32
F0.16
sg33
F0.0
sg34
F0.02
sg35
F0.0
sg36
F0.0
sg37
F0.0
sg38
F0.0
sg39
F0.04
sg40
F0.02
sg41
F0.0
sg42
F0.02
sg43
F0.42
sg44
F0.0
sg45
F0.58
sg46
F0.0
sg47
F0.0
sg48
F0.08
sg49
F0.5
sg50
F0.54
sg51
F0.24
sg52
F0.0
sg53
F0.24
sg54
F0.0
sg55
F0.0
sg56
F0.0
sg57
F0.08
sg58
F0.06
sg59
F0.0
sg60
F0.12
sg61
F0.44
sg62
F0.0
sg63
F0.02
sg64
F0.0
sg65
F0.06
sg66
F0.0
sg67
F0.18
sg68
F0.0
sg69
F0.0
sg70
F0.02
sg71
F0.22
sg72
F0.36
sg73
F0.0
sg74
F0.0
sg75
F0.5
sg76
F0.0
sg77
F0.0
ssS'DavidLawder'
p103
(dp104
g2
F0.36
sg3
F0.0
sg4
F0.54
sg5
F0.0
sg6
F0.2
sg7
F0.4
sg8
F0.0
sg9
F0.36
sg10
F0.0
sg11
F0.0
sg12
F0.0
sg13
F0.0
sg14
F0.0
sg15
F0.64
sg16
F0.0
sg17
F0.86
sg18
F0.06
sg19
F0.0
sg20
F0.0
sg21
F0.04
sg22
F0.0
sg23
F0.62
sg24
F0.0
sg25
F0.0
sg26
F0.2
sg27
F0.14
sg28
F0.06
sg29
F0.1
sg30
F0.0
sg31
F0.18
sg32
F0.18
sg33
F0.0
sg34
F0.04
sg35
F0.0
sg36
F0.0
sg37
F0.0
sg38
F0.0
sg39
F0.04
sg40
F0.0
sg41
F0.0
sg42
F0.52
sg43
F0.4
sg44
F0.0
sg45
F0.26
sg46
F0.0
sg47
F0.0
sg48
F0.16
sg49
F0.12
sg50
F0.42
sg51
F0.16
sg52
F0.0
sg53
F0.16
sg54
F0.0
sg55
F0.0
sg56
F0.0
sg57
F0.08
sg58
F0.88
sg59
F0.0
sg60
F0.26
sg61
F0.28
sg62
F0.0
sg63
F0.0
sg64
F0.0
sg65
F0.0
sg66
F0.0
sg67
F0.08
sg68
F0.0
sg69
F0.0
sg70
F0.0
sg71
F0.26
sg72
F0.16
sg73
F0.0
sg74
F0.0
sg75
F0.16
sg76
F0.0
sg77
F0.0
ssS'KevinDrawbaugh'
p105
(dp106
g2
F0.42
sg3
F0.0
sg4
F0.82
sg5
F0.0
sg6
F0.1
sg7
F0.38
sg8
F0.0
sg9
F0.44
sg10
F0.02
sg11
F0.0
sg12
F0.0
sg13
F0.0
sg14
F0.0
sg15
F0.0
sg16
F0.0
sg17
F0.04
sg18
F0.06
sg19
F0.0
sg20
F0.0
sg21
F0.12
sg22
F0.0
sg23
F0.0
sg24
F0.18
sg25
F0.0
sg26
F0.1
sg27
F0.36
sg28
F0.48
sg29
F0.2
sg30
F0.0
sg31
F0.14
sg32
F0.0
sg33
F0.0
sg34
F0.0
sg35
F0.0
sg36
F0.0
sg37
F0.0
sg38
F0.0
sg39
F0.02
sg40
F0.0
sg41
F0.0
sg42
F0.0
sg43
F0.38
sg44
F0.0
sg45
F0.22
sg46
F0.0
sg47
F0.0
sg48
F0.14
sg49
F0.5
sg50
F0.32
sg51
F0.26
sg52
F0.0
sg53
F0.46
sg54
F0.02
sg55
F0.0
sg56
F0.0
sg57
F0.08
sg58
F0.04
sg59
F0.0
sg60
F0.24
sg61
F0.2
sg62
F0.0
sg63
F0.0
sg64
F0.0
sg65
F0.02
sg66
F0.0
sg67
F0.1
sg68
F0.0
sg69
F0.0
sg70
F0.0
sg71
F0.14
sg72
F0.24
sg73
F0.0
sg74
F0.0
sg75
F0.6
sg76
F0.0
sg77
F0.0
ssS'LynnleyBrowning'
p107
(dp108
g2
F0.42
sg3
F0.06
sg4
F0.9
sg5
F0.0
sg6
F0.0
sg7
F0.56
sg8
F0.18
sg9
F0.56
sg10
F0.0
sg11
F0.02
sg12
F0.0
sg13
F0.0
sg14
F0.0
sg15
F0.0
sg16
F0.0
sg17
F0.0
sg18
F0.18
sg19
F0.0
sg20
F0.0
sg21
F0.0
sg22
F0.0
sg23
F0.0
sg24
F0.0
sg25
F0.0
sg26
F0.12
sg27
F0.04
sg28
F0.0
sg29
F0.0
sg30
F0.0
sg31
F0.14
sg32
F0.02
sg33
F0.0
sg34
F0.02
sg35
F0.0
sg36
F0.0
sg37
F0.0
sg38
F0.0
sg39
F0.0
sg40
F0.0
sg41
F0.0
sg42
F0.0
sg43
F0.54
sg44
F0.0
sg45
F0.2
sg46
F0.0
sg47
F0.0
sg48
F0.56
sg49
F0.08
sg50
F0.38
sg51
F0.08
sg52
F0.0
sg53
F0.02
sg54
F0.0
sg55
F0.0
sg56
F0.0
sg57
F0.0
sg58
F0.0
sg59
F0.0
sg60
F0.0
sg61
F0.02
sg62
F0.0
sg63
F0.0
sg64
F0.0
sg65
F0.06
sg66
F0.04
sg67
F0.0
sg68
F0.0
sg69
F0.0
sg70
F0.0
sg71
F0.22
sg72
F0.06
sg73
F0.0
sg74
F0.0
sg75
F0.04
sg76
F0.0
sg77
F0.0
ssS'ScottHillis'
p109
(dp110
g2
F0.34
sg3
F0.12
sg4
F0.38
sg5
F0.0
sg6
F0.0
sg7
F0.32
sg8
F0.06
sg9
F0.64
sg10
F0.0
sg11
F0.12
sg12
F0.12
sg13
F0.0
sg14
F0.14
sg15
F0.0
sg16
F0.0
sg17
F0.0
sg18
F0.08
sg19
F0.04
sg20
F0.08
sg21
F0.0
sg22
F0.1
sg23
F0.0
sg24
F0.02
sg25
F0.0
sg26
F0.06
sg27
F0.04
sg28
F0.02
sg29
F0.02
sg30
F0.0
sg31
F0.24
sg32
F0.04
sg33
F0.0
sg34
F0.02
sg35
F0.0
sg36
F0.0
sg37
F0.0
sg38
F0.0
sg39
F0.0
sg40
F0.0
sg41
F0.0
sg42
F0.0
sg43
F0.34
sg44
F0.0
sg45
F0.1
sg46
F0.0
sg47
F0.0
sg48
F0.08
sg49
F0.0
sg50
F0.38
sg51
F0.24
sg52
F0.0
sg53
F0.04
sg54
F0.0
sg55
F0.0
sg56
F0.0
sg57
F0.0
sg58
F0.0
sg59
F0.0
sg60
F0.08
sg61
F0.02
sg62
F0.0
sg63
F0.0
sg64
F0.0
sg65
F0.44
sg66
F0.0
sg67
F0.02
sg68
F0.0
sg69
F0.0
sg70
F0.0
sg71
F0.38
sg72
F0.46
sg73
F0.0
sg74
F0.1
sg75
F0.6
sg76
F0.0
sg77
F0.0
ssS'FumikoFujisaki'
p111
(dp112
g2
F0.74
sg3
F0.08
sg4
F0.6
sg5
F0.0
sg6
F0.02
sg7
F0.56
sg8
F0.0
sg9
F0.32
sg10
F0.0
sg11
F0.46
sg12
F0.04
sg13
F0.0
sg14
F0.02
sg15
F0.0
sg16
F0.0
sg17
F0.0
sg18
F0.2
sg19
F0.04
sg20
F0.0
sg21
F0.0
sg22
F0.0
sg23
F0.0
sg24
F0.04
sg25
F0.0
sg26
F0.14
sg27
F0.04
sg28
F0.16
sg29
F0.02
sg30
F0.0
sg31
F0.42
sg32
F0.02
sg33
F0.0
sg34
F0.0
sg35
F0.0
sg36
F0.0
sg37
F0.0
sg38
F0.0
sg39
F0.0
sg40
F0.0
sg41
F0.0
sg42
F0.0
sg43
F0.58
sg44
F0.0
sg45
F0.12
sg46
F0.0
sg47
F0.0
sg48
F0.04
sg49
F0.2
sg50
F0.28
sg51
F0.52
sg52
F0.0
sg53
F0.26
sg54
F0.0
sg55
F0.0
sg56
F0.5
sg57
F0.0
sg58
F0.0
sg59
F0.48
sg60
F0.14
sg61
F0.0
sg62
F0.0
sg63
F0.0
sg64
F0.0
sg65
F0.04
sg66
F0.0
sg67
F0.0
sg68
F0.68
sg69
F0.0
sg70
F0.0
sg71
F0.3
sg72
F0.42
sg73
F0.0
sg74
F0.0
sg75
F0.2
sg76
F0.0
sg77
F0.0
ssS'LydiaZajc'
p113
(dp114
g2
F0.12
sg3
F0.02
sg4
F0.8
sg5
F0.08
sg6
F0.1
sg7
F0.12
sg8
F0.0
sg9
F0.28
sg10
F0.04
sg11
F0.0
sg12
F0.0
sg13
F0.0
sg14
F0.0
sg15
F0.0
sg16
F0.0
sg17
F0.0
sg18
F0.0
sg19
F0.02
sg20
F0.0
sg21
F0.2
sg22
F0.0
sg23
F0.0
sg24
F0.0
sg25
F0.42
sg26
F0.06
sg27
F0.02
sg28
F0.24
sg29
F0.0
sg30
F0.0
sg31
F0.14
sg32
F0.04
sg33
F0.22
sg34
F0.0
sg35
F0.0
sg36
F0.0
sg37
F0.0
sg38
F0.0
sg39
F0.38
sg40
F0.0
sg41
F0.0
sg42
F0.0
sg43
F0.12
sg44
F0.0
sg45
F0.18
sg46
F0.0
sg47
F0.16
sg48
F0.1
sg49
F0.24
sg50
F0.14
sg51
F0.02
sg52
F0.8
sg53
F0.24
sg54
F0.04
sg55
F0.46
sg56
F0.0
sg57
F0.0
sg58
F0.0
sg59
F0.0
sg60
F0.02
sg61
F0.04
sg62
F0.0
sg63
F0.0
sg64
F0.0
sg65
F0.02
sg66
F0.0
sg67
F0.02
sg68
F0.0
sg69
F0.0
sg70
F0.0
sg71
F0.02
sg72
F0.08
sg73
F0.82
sg74
F0.0
sg75
F0.18
sg76
F0.0
sg77
F0.0
ssS'SarahDavison'
p115
(dp116
g2
F0.62
sg3
F0.1
sg4
F0.84
sg5
F0.0
sg6
F0.0
sg7
F0.54
sg8
F0.16
sg9
F0.62
sg10
F0.0
sg11
F0.04
sg12
F0.62
sg13
F0.0
sg14
F0.26
sg15
F0.0
sg16
F0.0
sg17
F0.0
sg18
F0.04
sg19
F0.04
sg20
F0.36
sg21
F0.0
sg22
F0.0
sg23
F0.0
sg24
F0.12
sg25
F0.02
sg26
F0.06
sg27
F0.0
sg28
F0.04
sg29
F0.0
sg30
F0.0
sg31
F0.14
sg32
F0.02
sg33
F0.0
sg34
F0.0
sg35
F0.0
sg36
F0.0
sg37
F0.0
sg38
F0.0
sg39
F0.04
sg40
F0.0
sg41
F0.0
sg42
F0.0
sg43
F0.6
sg44
F0.0
sg45
F0.38
sg46
F0.0
sg47
F0.0
sg48
F0.14
sg49
F0.08
sg50
F0.3
sg51
F0.34
sg52
F0.0
sg53
F0.06
sg54
F0.0
sg55
F0.0
sg56
F0.0
sg57
F0.0
sg58
F0.0
sg59
F0.0
sg60
F0.12
sg61
F0.02
sg62
F0.0
sg63
F0.0
sg64
F0.0
sg65
F0.14
sg66
F0.0
sg67
F0.0
sg68
F0.0
sg69
F0.0
sg70
F0.0
sg71
F0.24
sg72
F0.12
sg73
F0.0
sg74
F0.46
sg75
F0.52
sg76
F0.0
sg77
F0.0
ssS'GrahamEarnshaw'
p117
(dp118
g2
F0.32
sg3
F0.14
sg4
F0.88
sg5
F0.0
sg6
F0.0
sg7
F0.4
sg8
F0.46
sg9
F0.8
sg10
F0.0
sg11
F0.22
sg12
F0.08
sg13
F0.0
sg14
F0.08
sg15
F0.0
sg16
F0.0
sg17
F0.0
sg18
F0.12
sg19
F0.16
sg20
F0.08
sg21
F0.0
sg22
F0.04
sg23
F0.0
sg24
F0.04
sg25
F0.0
sg26
F0.12
sg27
F0.02
sg28
F0.34
sg29
F0.0
sg30
F0.0
sg31
F0.22
sg32
F0.06
sg33
F0.0
sg34
F0.0
sg35
F0.0
sg36
F0.0
sg37
F0.0
sg38
F0.0
sg39
F0.02
sg40
F0.0
sg41
F0.0
sg42
F0.0
sg43
F0.72
sg44
F0.0
sg45
F0.12
sg46
F0.0
sg47
F0.0
sg48
F0.04
sg49
F0.18
sg50
F0.14
sg51
F0.08
sg52
F0.0
sg53
F0.44
sg54
F0.0
sg55
F0.0
sg56
F0.0
sg57
F0.0
sg58
F0.0
sg59
F0.0
sg60
F0.1
sg61
F0.04
sg62
F0.0
sg63
F0.0
sg64
F0.0
sg65
F0.28
sg66
F0.0
sg67
F0.0
sg68
F0.0
sg69
F0.0
sg70
F0.0
sg71
F0.1
sg72
F0.34
sg73
F0.0
sg74
F0.0
sg75
F0.58
sg76
F0.0
sg77
F0.0
ssS'AaronPressman'
p119
(dp120
g2
F0.42
sg3
F0.0
sg4
F0.52
sg5
F0.0
sg6
F0.08
sg7
F0.38
sg8
F0.0
sg9
F0.46
sg10
F0.02
sg11
F0.0
sg12
F0.0
sg13
F0.0
sg14
F0.0
sg15
F0.0
sg16
F0.0
sg17
F0.0
sg18
F0.0
sg19
F0.0
sg20
F0.0
sg21
F0.12
sg22
F0.0
sg23
F0.0
sg24
F0.2
sg25
F0.0
sg26
F0.0
sg27
F0.02
sg28
F0.02
sg29
F0.0
sg30
F0.0
sg31
F0.14
sg32
F0.0
sg33
F0.0
sg34
F0.02
sg35
F0.0
sg36
F0.0
sg37
F0.0
sg38
F0.0
sg39
F0.0
sg40
F0.0
sg41
F0.0
sg42
F0.0
sg43
F0.42
sg44
F0.0
sg45
F0.12
sg46
F0.0
sg47
F0.0
sg48
F0.0
sg49
F0.22
sg50
F0.3
sg51
F0.12
sg52
F0.0
sg53
F0.02
sg54
F0.02
sg55
F0.0
sg56
F0.0
sg57
F0.0
sg58
F0.02
sg59
F0.0
sg60
F0.06
sg61
F0.02
sg62
F0.0
sg63
F0.16
sg64
F0.0
sg65
F0.2
sg66
F0.04
sg67
F0.0
sg68
F0.0
sg69
F0.0
sg70
F0.16
sg71
F0.2
sg72
F0.52
sg73
F0.0
sg74
F0.0
sg75
F0.26
sg76
F0.0
sg77
F0.0
ssS'JohnMastrini'
p121
(dp122
g2
F0.24
sg3
F0.22
sg4
F0.4
sg5
F0.0
sg6
F0.0
sg7
F0.26
sg8
F0.0
sg9
F0.5
sg10
F0.0
sg11
F0.1
sg12
F0.0
sg13
F0.42
sg14
F0.0
sg15
F0.0
sg16
F0.2
sg17
F0.0
sg18
F0.18
sg19
F0.0
sg20
F0.0
sg21
F0.0
sg22
F0.0
sg23
F0.0
sg24
F0.02
sg25
F0.0
sg26
F0.36
sg27
F0.04
sg28
F0.04
sg29
F0.0
sg30
F0.0
sg31
F0.16
sg32
F0.02
sg33
F0.0
sg34
F0.0
sg35
F0.0
sg36
F0.0
sg37
F0.0
sg38
F0.0
sg39
F0.0
sg40
F0.0
sg41
F0.0
sg42
F0.0
sg43
F0.4
sg44
F0.12
sg45
F0.38
sg46
F0.0
sg47
F0.0
sg48
F0.02
sg49
F0.04
sg50
F0.2
sg51
F0.12
sg52
F0.0
sg53
F0.04
sg54
F0.0
sg55
F0.0
sg56
F0.0
sg57
F0.0
sg58
F0.0
sg59
F0.0
sg60
F0.08
sg61
F0.04
sg62
F0.0
sg63
F0.0
sg64
F0.0
sg65
F0.12
sg66
F0.0
sg67
F0.0
sg68
F0.0
sg69
F0.0
sg70
F0.0
sg71
F0.04
sg72
F0.3
sg73
F0.0
sg74
F0.0
sg75
F0.18
sg76
F0.0
sg77
F0.0
ssS'NickLouth'
p123
(dp124
g2
F0.42
sg3
F0.0
sg4
F0.84
sg5
F0.0
sg6
F0.26
sg7
F0.42
sg8
F0.1
sg9
F0.48
sg10
F0.0
sg11
F0.0
sg12
F0.0
sg13
F0.0
sg14
F0.0
sg15
F0.0
sg16
F0.0
sg17
F0.02
sg18
F0.08
sg19
F0.0
sg20
F0.0
sg21
F0.1
sg22
F0.0
sg23
F0.0
sg24
F0.04
sg25
F0.0
sg26
F0.08
sg27
F0.04
sg28
F0.18
sg29
F0.2
sg30
F0.0
sg31
F0.18
sg32
F0.08
sg33
F0.0
sg34
F0.0
sg35
F0.0
sg36
F0.46
sg37
F0.0
sg38
F0.0
sg39
F0.02
sg40
F0.0
sg41
F0.0
sg42
F0.0
sg43
F0.46
sg44
F0.0
sg45
F0.34
sg46
F0.0
sg47
F0.0
sg48
F0.16
sg49
F0.8
sg50
F0.32
sg51
F0.04
sg52
F0.0
sg53
F0.2
sg54
F0.0
sg55
F0.0
sg56
F0.0
sg57
F0.1
sg58
F0.0
sg59
F0.0
sg60
F0.08
sg61
F0.2
sg62
F0.0
sg63
F0.8
sg64
F0.0
sg65
F0.12
sg66
F0.0
sg67
F0.16
sg68
F0.0
sg69
F0.0
sg70
F0.8
sg71
F0.2
sg72
F0.14
sg73
F0.0
sg74
F0.0
sg75
F0.22
sg76
F0.0
sg77
F0.0
ssS'PierreTran'
p125
(dp126
g2
F0.46
sg3
F0.0
sg4
F0.3
sg5
F0.02
sg6
F0.0
sg7
F0.3
sg8
F0.04
sg9
F0.44
sg10
F0.0
sg11
F0.34
sg12
F0.0
sg13
F0.0
sg14
F0.0
sg15
F0.0
sg16
F0.0
sg17
F0.0
sg18
F0.02
sg19
F0.06
sg20
F0.0
sg21
F0.0
sg22
F0.0
sg23
F0.0
sg24
F0.04
sg25
F0.02
sg26
F0.16
sg27
F0.08
sg28
F0.04
sg29
F0.14
sg30
F0.06
sg31
F0.44
sg32
F0.02
sg33
F0.0
sg34
F0.0
sg35
F0.0
sg36
F0.0
sg37
F0.0
sg38
F0.0
sg39
F0.0
sg40
F0.0
sg41
F0.0
sg42
F0.0
sg43
F0.38
sg44
F0.0
sg45
F0.04
sg46
F0.0
sg47
F0.0
sg48
F0.2
sg49
F0.08
sg50
F0.3
sg51
F0.42
sg52
F0.0
sg53
F0.04
sg54
F0.0
sg55
F0.0
sg56
F0.0
sg57
F0.0
sg58
F0.0
sg59
F0.0
sg60
F0.1
sg61
F0.28
sg62
F0.0
sg63
F0.0
sg64
F0.0
sg65
F0.14
sg66
F0.16
sg67
F0.0
sg68
F0.0
sg69
F0.18
sg70
F0.0
sg71
F0.2
sg72
F0.32
sg73
F0.0
sg74
F0.0
sg75
F0.24
sg76
F0.06
sg77
F0.0
ssS'RogerFillion'
p127
(dp128
g2
F0.02
sg3
F0.0
sg4
F0.9
sg5
F0.0
sg6
F0.28
sg7
F0.16
sg8
F0.0
sg9
F0.6
sg10
F0.02
sg11
F0.0
sg12
F0.0
sg13
F0.0
sg14
F0.1
sg15
F0.0
sg16
F0.0
sg17
F0.0
sg18
F0.08
sg19
F0.0
sg20
F0.0
sg21
F0.1
sg22
F0.0
sg23
F0.0
sg24
F0.2
sg25
F0.0
sg26
F0.02
sg27
F0.0
sg28
F0.06
sg29
F0.02
sg30
F0.0
sg31
F0.08
sg32
F0.0
sg33
F0.0
sg34
F0.0
sg35
F0.0
sg36
F0.12
sg37
F0.0
sg38
F0.0
sg39
F0.0
sg40
F0.0
sg41
F0.0
sg42
F0.0
sg43
F0.22
sg44
F0.0
sg45
F0.08
sg46
F0.0
sg47
F0.0
sg48
F0.0
sg49
F0.54
sg50
F0.26
sg51
F0.0
sg52
F0.0
sg53
F0.06
sg54
F0.02
sg55
F0.0
sg56
F0.0
sg57
F0.0
sg58
F0.0
sg59
F0.0
sg60
F0.26
sg61
F0.0
sg62
F0.0
sg63
F0.48
sg64
F0.0
sg65
F0.04
sg66
F0.0
sg67
F0.0
sg68
F0.0
sg69
F0.0
sg70
F0.48
sg71
F0.24
sg72
F0.08
sg73
F0.0
sg74
F0.0
sg75
F0.0
sg76
F0.0
sg77
F0.0
ssS'MatthewBunce'
p129
(dp130
g2
F0.42
sg3
F0.1
sg4
F0.86
sg5
F0.0
sg6
F0.0
sg7
F0.4
sg8
F0.6
sg9
F0.64
sg10
F0.0
sg11
F0.08
sg12
F0.0
sg13
F0.0
sg14
F0.0
sg15
F0.0
sg16
F0.0
sg17
F0.0
sg18
F0.14
sg19
F0.02
sg20
F0.0
sg21
F0.02
sg22
F0.0
sg23
F0.0
sg24
F0.0
sg25
F0.0
sg26
F0.1
sg27
F0.0
sg28
F0.02
sg29
F0.0
sg30
F0.0
sg31
F0.36
sg32
F0.06
sg33
F0.0
sg34
F0.04
sg35
F0.68
sg36
F0.0
sg37
F0.0
sg38
F0.0
sg39
F0.02
sg40
F0.0
sg41
F0.0
sg42
F0.0
sg43
F0.68
sg44
F0.04
sg45
F0.14
sg46
F0.0
sg47
F0.0
sg48
F0.08
sg49
F0.02
sg50
F0.54
sg51
F0.14
sg52
F0.0
sg53
F0.0
sg54
F0.0
sg55
F0.0
sg56
F0.0
sg57
F0.0
sg58
F0.0
sg59
F0.0
sg60
F0.12
sg61
F0.0
sg62
F0.0
sg63
F0.0
sg64
F0.0
sg65
F0.14
sg66
F0.0
sg67
F0.0
sg68
F0.0
sg69
F0.0
sg70
F0.0
sg71
F0.02
sg72
F0.1
sg73
F0.0
sg74
F0.0
sg75
F0.3
sg76
F0.0
sg77
F0.0
ssS'KouroshKarimkhany'
p131
(dp132
g2
F0.2
sg3
F0.0
sg4
F0.8
sg5
F0.0
sg6
F0.36
sg7
F0.22
sg8
F0.02
sg9
F0.34
sg10
F0.2
sg11
F0.0
sg12
F0.04
sg13
F0.0
sg14
F0.0
sg15
F0.0
sg16
F0.0
sg17
F0.0
sg18
F0.06
sg19
F0.0
sg20
F0.0
sg21
F0.38
sg22
F0.0
sg23
F0.0
sg24
F0.26
sg25
F0.0
sg26
F0.16
sg27
F0.32
sg28
F0.46
sg29
F0.32
sg30
F0.0
sg31
F0.06
sg32
F0.06
sg33
F0.0
sg34
F0.04
sg35
F0.0
sg36
F0.0
sg37
F0.0
sg38
F0.0
sg39
F0.08
sg40
F0.0
sg41
F0.0
sg42
F0.0
sg43
F0.22
sg44
F0.0
sg45
F0.18
sg46
F0.0
sg47
F0.0
sg48
F0.24
sg49
F0.22
sg50
F0.28
sg51
F0.08
sg52
F0.0
sg53
F0.54
sg54
F0.2
sg55
F0.0
sg56
F0.0
sg57
F0.28
sg58
F0.0
sg59
F0.0
sg60
F0.2
sg61
F0.38
sg62
F0.0
sg63
F0.0
sg64
F0.0
sg65
F0.02
sg66
F0.0
sg67
F0.32
sg68
F0.0
sg69
F0.0
sg70
F0.0
sg71
F0.08
sg72
F0.12
sg73
F0.0
sg74
F0.0
sg75
F0.4
sg76
F0.0
sg77
F0.0
ssS'JimGilchrist'
p133
(dp134
g2
F0.2
sg3
F0.0
sg4
F0.16
sg5
F0.0
sg6
F0.0
sg7
F0.12
sg8
F0.0
sg9
F0.1
sg10
F0.0
sg11
F0.0
sg12
F0.28
sg13
F0.0
sg14
F0.22
sg15
F0.0
sg16
F0.0
sg17
F0.0
sg18
F0.16
sg19
F0.0
sg20
F0.18
sg21
F0.0
sg22
F0.0
sg23
F0.0
sg24
F0.0
sg25
F0.0
sg26
F0.12
sg27
F0.02
sg28
F0.02
sg29
F0.02
sg30
F0.0
sg31
F0.14
sg32
F0.0
sg33
F0.0
sg34
F0.0
sg35
F0.0
sg36
F0.0
sg37
F0.04
sg38
F0.96
sg39
F0.0
sg40
F0.0
sg41
F0.82
sg42
F0.0
sg43
F0.26
sg44
F0.0
sg45
F0.04
sg46
F0.0
sg47
F0.0
sg48
F0.04
sg49
F0.04
sg50
F0.3
sg51
F0.18
sg52
F0.0
sg53
F0.02
sg54
F0.0
sg55
F0.0
sg56
F0.0
sg57
F0.0
sg58
F0.0
sg59
F0.0
sg60
F0.06
sg61
F0.06
sg62
F0.96
sg63
F0.0
sg64
F0.0
sg65
F0.04
sg66
F0.0
sg67
F0.0
sg68
F0.0
sg69
F0.04
sg70
F0.0
sg71
F0.06
sg72
F0.2
sg73
F0.0
sg74
F0.3
sg75
F0.18
sg76
F0.0
sg77
F0.98
ssS'DarrenSchuettler'
p135
(dp136
g2
F0.2
sg3
F0.42
sg4
F0.66
sg5
F0.36
sg6
F0.12
sg7
F0.22
sg8
F0.0
sg9
F0.26
sg10
F0.0
sg11
F0.0
sg12
F0.0
sg13
F0.0
sg14
F0.02
sg15
F0.0
sg16
F0.0
sg17
F0.06
sg18
F0.1
sg19
F0.06
sg20
F0.0
sg21
F0.24
sg22
F0.0
sg23
F0.0
sg24
F0.0
sg25
F0.46
sg26
F0.02
sg27
F0.04
sg28
F0.16
sg29
F0.1
sg30
F0.0
sg31
F0.22
sg32
F0.0
sg33
F0.44
sg34
F0.0
sg35
F0.0
sg36
F0.0
sg37
F0.0
sg38
F0.0
sg39
F0.18
sg40
F0.0
sg41
F0.0
sg42
F0.0
sg43
F0.24
sg44
F0.0
sg45
F0.3
sg46
F0.0
sg47
F0.0
sg48
F0.16
sg49
F0.16
sg50
F0.42
sg51
F0.0
sg52
F0.46
sg53
F0.18
sg54
F0.0
sg55
F0.44
sg56
F0.0
sg57
F0.0
sg58
F0.0
sg59
F0.0
sg60
F0.16
sg61
F0.0
sg62
F0.0
sg63
F0.0
sg64
F0.0
sg65
F0.04
sg66
F0.14
sg67
F0.1
sg68
F0.0
sg69
F0.0
sg70
F0.0
sg71
F0.2
sg72
F0.12
sg73
F0.04
sg74
F0.0
sg75
F0.08
sg76
F0.0
sg77
F0.0
ssS'TanEeLyn'
p137
(dp138
g2
F0.36
sg3
F0.08
sg4
F0.5
sg5
F0.0
sg6
F0.0
sg7
F0.34
sg8
F0.0
sg9
F0.22
sg10
F0.0
sg11
F0.0
sg12
F0.72
sg13
F0.0
sg14
F0.58
sg15
F0.0
sg16
F0.0
sg17
F0.0
sg18
F0.04
sg19
F0.0
sg20
F0.54
sg21
F0.0
sg22
F0.0
sg23
F0.0
sg24
F0.0
sg25
F0.0
sg26
F0.0
sg27
F0.04
sg28
F0.0
sg29
F0.0
sg30
F0.0
sg31
F0.12
sg32
F0.0
sg33
F0.0
sg34
F0.0
sg35
F0.0
sg36
F0.0
sg37
F0.0
sg38
F0.0
sg39
F0.02
sg40
F0.0
sg41
F0.0
sg42
F0.0
sg43
F0.4
sg44
F0.0
sg45
F0.28
sg46
F0.0
sg47
F0.0
sg48
F0.08
sg49
F0.04
sg50
F0.46
sg51
F0.12
sg52
F0.0
sg53
F0.0
sg54
F0.0
sg55
F0.0
sg56
F0.0
sg57
F0.0
sg58
F0.0
sg59
F0.0
sg60
F0.06
sg61
F0.04
sg62
F0.0
sg63
F0.0
sg64
F0.0
sg65
F0.26
sg66
F0.02
sg67
F0.0
sg68
F0.0
sg69
F0.0
sg70
F0.0
sg71
F0.2
sg72
F0.36
sg73
F0.0
sg74
F0.6
sg75
F0.44
sg76
F0.0
sg77
F0.0
ssS'JoeOrtiz'
p139
(dp140
g2
F0.16
sg3
F0.04
sg4
F0.4
sg5
F0.0
sg6
F0.0
sg7
F0.18
sg8
F0.14
sg9
F0.42
sg10
F0.0
sg11
F0.3
sg12
F0.0
sg13
F0.0
sg14
F0.0
sg15
F0.0
sg16
F0.0
sg17
F0.0
sg18
F0.08
sg19
F0.0
sg20
F0.0
sg21
F0.0
sg22
F0.0
sg23
F0.0
sg24
F0.04
sg25
F0.04
sg26
F0.16
sg27
F0.12
sg28
F0.04
sg29
F0.02
sg30
F0.24
sg31
F0.2
sg32
F0.08
sg33
F0.0
sg34
F0.0
sg35
F0.0
sg36
F0.0
sg37
F0.0
sg38
F0.0
sg39
F0.0
sg40
F0.0
sg41
F0.0
sg42
F0.0
sg43
F0.22
sg44
F0.0
sg45
F0.12
sg46
F0.1
sg47
F0.0
sg48
F0.04
sg49
F0.24
sg50
F0.2
sg51
F0.02
sg52
F0.0
sg53
F0.08
sg54
F0.0
sg55
F0.0
sg56
F0.0
sg57
F0.0
sg58
F0.0
sg59
F0.0
sg60
F0.26
sg61
F0.08
sg62
F0.0
sg63
F0.0
sg64
F0.0
sg65
F0.08
sg66
F0.04
sg67
F0.0
sg68
F0.0
sg69
F0.0
sg70
F0.0
sg71
F0.04
sg72
F0.16
sg73
F0.0
sg74
F0.0
sg75
F0.04
sg76
F0.58
sg77
F0.0
ssS'MureDickie'
p141
(dp142
g2
F0.7
sg3
F0.06
sg4
F0.36
sg5
F0.0
sg6
F0.0
sg7
F0.72
sg8
F0.04
sg9
F0.54
sg10
F0.0
sg11
F0.04
sg12
F0.1
sg13
F0.0
sg14
F0.1
sg15
F0.0
sg16
F0.0
sg17
F0.0
sg18
F0.02
sg19
F0.02
sg20
F0.04
sg21
F0.0
sg22
F0.06
sg23
F0.0
sg24
F0.02
sg25
F0.0
sg26
F0.1
sg27
F0.02
sg28
F0.02
sg29
F0.0
sg30
F0.0
sg31
F0.2
sg32
F0.0
sg33
F0.0
sg34
F0.02
sg35
F0.0
sg36
F0.0
sg37
F0.0
sg38
F0.0
sg39
F0.0
sg40
F0.0
sg41
F0.0
sg42
F0.0
sg43
F0.72
sg44
F0.0
sg45
F0.24
sg46
F0.0
sg47
F0.0
sg48
F0.02
sg49
F0.02
sg50
F0.4
sg51
F0.48
sg52
F0.0
sg53
F0.0
sg54
F0.0
sg55
F0.0
sg56
F0.0
sg57
F0.0
sg58
F0.0
sg59
F0.02
sg60
F0.02
sg61
F0.06
sg62
F0.0
sg63
F0.0
sg64
F0.0
sg65
F0.22
sg66
F0.02
sg67
F0.0
sg68
F0.02
sg69
F0.0
sg70
F0.0
sg71
F0.38
sg72
F0.36
sg73
F0.0
sg74
F0.04
sg75
F0.7
sg76
F0.0
sg77
F0.0
ssS'EdnaFernandes'
p143
(dp144
g2
F0.54
sg3
F0.0
sg4
F0.42
sg5
F0.04
sg6
F0.0
sg7
F0.52
sg8
F0.06
sg9
F0.48
sg10
F0.0
sg11
F0.4
sg12
F0.02
sg13
F0.0
sg14
F0.02
sg15
F0.0
sg16
F0.0
sg17
F0.0
sg18
F0.08
sg19
F0.04
sg20
F0.0
sg21
F0.0
sg22
F0.0
sg23
F0.0
sg24
F0.02
sg25
F0.02
sg26
F0.22
sg27
F0.12
sg28
F0.0
sg29
F0.0
sg30
F0.36
sg31
F0.06
sg32
F0.06
sg33
F0.0
sg34
F0.0
sg35
F0.0
sg36
F0.0
sg37
F0.0
sg38
F0.0
sg39
F0.0
sg40
F0.0
sg41
F0.0
sg42
F0.0
sg43
F0.46
sg44
F0.0
sg45
F0.14
sg46
F0.14
sg47
F0.0
sg48
F0.02
sg49
F0.14
sg50
F0.16
sg51
F0.2
sg52
F0.0
sg53
F0.0
sg54
F0.0
sg55
F0.0
sg56
F0.0
sg57
F0.0
sg58
F0.0
sg59
F0.02
sg60
F0.1
sg61
F0.14
sg62
F0.0
sg63
F0.0
sg64
F0.0
sg65
F0.1
sg66
F0.16
sg67
F0.0
sg68
F0.02
sg69
F0.0
sg70
F0.0
sg71
F0.1
sg72
F0.14
sg73
F0.0
sg74
F0.0
sg75
F0.08
sg76
F0.54
sg77
F0.0
ssS'JoWinterbottom'
p145
(dp146
g2
F0.2
sg3
F0.0
sg4
F0.76
sg5
F0.0
sg6
F0.0
sg7
F0.32
sg8
F0.64
sg9
F0.62
sg10
F0.0
sg11
F0.62
sg12
F0.0
sg13
F0.0
sg14
F0.0
sg15
F0.0
sg16
F0.0
sg17
F0.0
sg18
F0.06
sg19
F0.32
sg20
F0.0
sg21
F0.06
sg22
F0.02
sg23
F0.0
sg24
F0.02
sg25
F0.02
sg26
F0.1
sg27
F0.24
sg28
F0.24
sg29
F0.1
sg30
F0.4
sg31
F0.2
sg32
F0.02
sg33
F0.0
sg34
F0.0
sg35
F0.0
sg36
F0.0
sg37
F0.0
sg38
F0.0
sg39
F0.12
sg40
F0.02
sg41
F0.0
sg42
F0.0
sg43
F0.44
sg44
F0.0
sg45
F0.14
sg46
F0.5
sg47
F0.0
sg48
F0.0
sg49
F0.14
sg50
F0.32
sg51
F0.06
sg52
F0.0
sg53
F0.36
sg54
F0.0
sg55
F0.0
sg56
F0.0
sg57
F0.0
sg58
F0.0
sg59
F0.0
sg60
F0.08
sg61
F0.14
sg62
F0.0
sg63
F0.0
sg64
F0.0
sg65
F0.36
sg66
F0.06
sg67
F0.04
sg68
F0.0
sg69
F0.0
sg70
F0.0
sg71
F0.08
sg72
F0.14
sg73
F0.0
sg74
F0.0
sg75
F0.26
sg76
F0.6
sg77
F0.0
ssS'BenjaminKangLim'
p147
(dp148
g2
F0.16
sg3
F0.12
sg4
F0.2
sg5
F0.0
sg6
F0.0
sg7
F0.14
sg8
F0.0
sg9
F0.28
sg10
F0.0
sg11
F0.02
sg12
F0.06
sg13
F0.0
sg14
F0.06
sg15
F0.0
sg16
F0.0
sg17
F0.0
sg18
F0.04
sg19
F0.06
sg20
F0.04
sg21
F0.0
sg22
F0.16
sg23
F0.0
sg24
F0.06
sg25
F0.0
sg26
F0.08
sg27
F0.0
sg28
F0.02
sg29
F0.04
sg30
F0.0
sg31
F0.22
sg32
F0.0
sg33
F0.0
sg34
F0.0
sg35
F0.0
sg36
F0.0
sg37
F0.0
sg38
F0.0
sg39
F0.0
sg40
F0.0
sg41
F0.0
sg42
F0.0
sg43
F0.14
sg44
F0.0
sg45
F0.14
sg46
F0.0
sg47
F0.0
sg48
F0.06
sg49
F0.0
sg50
F0.18
sg51
F0.06
sg52
F0.0
sg53
F0.02
sg54
F0.0
sg55
F0.0
sg56
F0.0
sg57
F0.0
sg58
F0.0
sg59
F0.0
sg60
F0.08
sg61
F0.0
sg62
F0.0
sg63
F0.0
sg64
F0.0
sg65
F0.44
sg66
F0.02
sg67
F0.0
sg68
F0.0
sg69
F0.0
sg70
F0.0
sg71
F0.34
sg72
F0.52
sg73
F0.0
sg74
F0.02
sg75
F0.48
sg76
F0.0
sg77
F0.0
ssS'KarlPenhaul'
p149
(dp150
g2
F0.24
sg3
F0.36
sg4
F0.24
sg5
F0.0
sg6
F0.0
sg7
F0.34
sg8
F0.0
sg9
F0.48
sg10
F0.0
sg11
F0.0
sg12
F0.0
sg13
F0.0
sg14
F0.0
sg15
F0.0
sg16
F0.0
sg17
F0.0
sg18
F0.18
sg19
F0.0
sg20
F0.0
sg21
F0.0
sg22
F0.0
sg23
F0.0
sg24
F0.04
sg25
F0.0
sg26
F0.12
sg27
F0.0
sg28
F0.02
sg29
F0.02
sg30
F0.0
sg31
F0.08
sg32
F0.02
sg33
F0.0
sg34
F0.0
sg35
F0.0
sg36
F0.0
sg37
F0.0
sg38
F0.0
sg39
F0.0
sg40
F0.0
sg41
F0.0
sg42
F0.0
sg43
F0.42
sg44
F0.0
sg45
F0.16
sg46
F0.0
sg47
F0.0
sg48
F0.16
sg49
F0.0
sg50
F0.22
sg51
F0.02
sg52
F0.0
sg53
F0.0
sg54
F0.0
sg55
F0.0
sg56
F0.0
sg57
F0.0
sg58
F0.0
sg59
F0.0
sg60
F0.04
sg61
F0.02
sg62
F0.0
sg63
F0.0
sg64
F0.0
sg65
F0.18
sg66
F0.0
sg67
F0.0
sg68
F0.0
sg69
F0.0
sg70
F0.0
sg71
F0.38
sg72
F0.32
sg73
F0.0
sg74
F0.0
sg75
F0.1
sg76
F0.0
sg77
F0.0
ssS'JonathanBirt'
p151
(dp152
g2
F0.42
sg3
F0.0
sg4
F0.34
sg5
F0.0
sg6
F0.0
sg7
F0.46
sg8
F0.06
sg9
F0.32
sg10
F0.0
sg11
F0.26
sg12
F0.02
sg13
F0.0
sg14
F0.02
sg15
F0.0
sg16
F0.0
sg17
F0.04
sg18
F0.22
sg19
F0.0
sg20
F0.0
sg21
F0.0
sg22
F0.0
sg23
F0.0
sg24
F0.06
sg25
F0.0
sg26
F0.16
sg27
F0.28
sg28
F0.0
sg29
F0.04
sg30
F0.28
sg31
F0.36
sg32
F0.06
sg33
F0.0
sg34
F0.0
sg35
F0.0
sg36
F0.0
sg37
F0.0
sg38
F0.0
sg39
F0.08
sg40
F0.0
sg41
F0.0
sg42
F0.0
sg43
F0.5
sg44
F0.0
sg45
F0.1
sg46
F0.1
sg47
F0.0
sg48
F0.1
sg49
F0.32
sg50
F0.32
sg51
F0.02
sg52
F0.0
sg53
F0.14
sg54
F0.0
sg55
F0.0
sg56
F0.0
sg57
F0.0
sg58
F0.0
sg59
F0.0
sg60
F0.04
sg61
F0.08
sg62
F0.0
sg63
F0.0
sg64
F0.0
sg65
F0.02
sg66
F0.36
sg67
F0.0
sg68
F0.0
sg69
F0.0
sg70
F0.0
sg71
F0.18
sg72
F0.12
sg73
F0.0
sg74
F0.0
sg75
F0.04
sg76
F0.34
sg77
F0.0
ssS'BernardHickey'
p153
(dp154
g2
F0.72
sg3
F0.0
sg4
F0.38
sg5
F0.0
sg6
F0.02
sg7
F0.68
sg8
F0.08
sg9
F0.46
sg10
F0.0
sg11
F0.02
sg12
F0.0
sg13
F0.0
sg14
F0.02
sg15
F0.0
sg16
F0.0
sg17
F0.0
sg18
F0.26
sg19
F0.22
sg20
F0.0
sg21
F0.0
sg22
F0.0
sg23
F0.0
sg24
F0.0
sg25
F0.08
sg26
F0.3
sg27
F0.0
sg28
F0.1
sg29
F0.02
sg30
F0.0
sg31
F0.22
sg32
F0.18
sg33
F0.0
sg34
F0.38
sg35
F0.0
sg36
F0.0
sg37
F0.0
sg38
F0.0
sg39
F0.06
sg40
F0.48
sg41
F0.0
sg42
F0.0
sg43
F0.68
sg44
F0.0
sg45
F0.24
sg46
F0.0
sg47
F0.0
sg48
F0.16
sg49
F0.04
sg50
F0.56
sg51
F0.32
sg52
F0.0
sg53
F0.06
sg54
F0.0
sg55
F0.0
sg56
F0.0
sg57
F0.0
sg58
F0.0
sg59
F0.0
sg60
F0.16
sg61
F0.1
sg62
F0.0
sg63
F0.0
sg64
F0.0
sg65
F0.32
sg66
F0.12
sg67
F0.02
sg68
F0.0
sg69
F0.0
sg70
F0.0
sg71
F0.16
sg72
F0.3
sg73
F0.0
sg74
F0.02
sg75
F0.7
sg76
F0.0
sg77
F0.0
ssS'RobinSidel'
p155
(dp156
g2
F0.08
sg3
F0.0
sg4
F0.82
sg5
F0.0
sg6
F0.06
sg7
F0.12
sg8
F0.24
sg9
F0.36
sg10
F0.0
sg11
F0.0
sg12
F0.0
sg13
F0.0
sg14
F0.0
sg15
F0.0
sg16
F0.0
sg17
F0.04
sg18
F0.02
sg19
F0.0
sg20
F0.0
sg21
F0.26
sg22
F0.0
sg23
F0.0
sg24
F0.02
sg25
F0.0
sg26
F0.06
sg27
F0.08
sg28
F0.08
sg29
F0.04
sg30
F0.0
sg31
F0.04
sg32
F0.0
sg33
F0.0
sg34
F0.04
sg35
F0.0
sg36
F0.0
sg37
F0.0
sg38
F0.0
sg39
F0.02
sg40
F0.0
sg41
F0.0
sg42
F0.0
sg43
F0.14
sg44
F0.0
sg45
F0.38
sg46
F0.0
sg47
F0.0
sg48
F0.02
sg49
F0.54
sg50
F0.32
sg51
F0.04
sg52
F0.0
sg53
F0.1
sg54
F0.0
sg55
F0.0
sg56
F0.0
sg57
F0.0
sg58
F0.02
sg59
F0.0
sg60
F0.24
sg61
F0.38
sg62
F0.0
sg63
F0.04
sg64
F0.24
sg65
F0.0
sg66
F0.0
sg67
F0.08
sg68
F0.0
sg69
F0.0
sg70
F0.04
sg71
F0.04
sg72
F0.04
sg73
F0.0
sg74
F0.0
sg75
F0.1
sg76
F0.0
sg77
F0.0
ssS'AlanCrosby'
p157
(dp158
g2
F0.12
sg3
F0.18
sg4
F0.76
sg5
F0.0
sg6
F0.0
sg7
F0.12
sg8
F0.16
sg9
F0.44
sg10
F0.0
sg11
F0.04
sg12
F0.0
sg13
F0.3
sg14
F0.0
sg15
F0.0
sg16
F0.1
sg17
F0.0
sg18
F0.0
sg19
F0.0
sg20
F0.0
sg21
F0.0
sg22
F0.0
sg23
F0.0
sg24
F0.0
sg25
F0.0
sg26
F0.32
sg27
F0.02
sg28
F0.0
sg29
F0.02
sg30
F0.0
sg31
F0.22
sg32
F0.42
sg33
F0.0
sg34
F0.0
sg35
F0.0
sg36
F0.0
sg37
F0.0
sg38
F0.0
sg39
F0.12
sg40
F0.0
sg41
F0.0
sg42
F0.0
sg43
F0.26
sg44
F0.28
sg45
F0.4
sg46
F0.0
sg47
F0.0
sg48
F0.02
sg49
F0.0
sg50
F0.06
sg51
F0.02
sg52
F0.0
sg53
F0.06
sg54
F0.0
sg55
F0.0
sg56
F0.0
sg57
F0.0
sg58
F0.0
sg59
F0.0
sg60
F0.04
sg61
F0.02
sg62
F0.0
sg63
F0.0
sg64
F0.0
sg65
F0.08
sg66
F0.04
sg67
F0.0
sg68
F0.0
sg69
F0.0
sg70
F0.0
sg71
F0.0
sg72
F0.1
sg73
F0.0
sg74
F0.0
sg75
F0.0
sg76
F0.0
sg77
F0.0
ssS'TimFarrand'
p159
(dp160
g2
F0.44
sg3
F0.04
sg4
F0.8
sg5
F0.02
sg6
F0.0
sg7
F0.5
sg8
F0.14
sg9
F0.44
sg10
F0.0
sg11
F0.38
sg12
F0.0
sg13
F0.0
sg14
F0.0
sg15
F0.0
sg16
F0.0
sg17
F0.0
sg18
F0.16
sg19
F0.0
sg20
F0.0
sg21
F0.0
sg22
F0.0
sg23
F0.0
sg24
F0.0
sg25
F0.0
sg26
F0.22
sg27
F0.48
sg28
F0.08
sg29
F0.02
sg30
F0.4
sg31
F0.22
sg32
F0.2
sg33
F0.0
sg34
F0.0
sg35
F0.0
sg36
F0.0
sg37
F0.0
sg38
F0.0
sg39
F0.02
sg40
F0.0
sg41
F0.0
sg42
F0.0
sg43
F0.56
sg44
F0.0
sg45
F0.28
sg46
F0.04
sg47
F0.0
sg48
F0.0
sg49
F0.32
sg50
F0.42
sg51
F0.04
sg52
F0.0
sg53
F0.08
sg54
F0.0
sg55
F0.0
sg56
F0.0
sg57
F0.0
sg58
F0.0
sg59
F0.0
sg60
F0.1
sg61
F0.5
sg62
F0.0
sg63
F0.0
sg64
F0.0
sg65
F0.04
sg66
F0.14
sg67
F0.0
sg68
F0.0
sg69
F0.0
sg70
F0.0
sg71
F0.18
sg72
F0.1
sg73
F0.0
sg74
F0.0
sg75
F0.14
sg76
F0.46
sg77
F0.0
ssS'PeterHumphrey'
p161
(dp162
g2
F0.44
sg3
F0.02
sg4
F0.52
sg5
F0.0
sg6
F0.0
sg7
F0.52
sg8
F0.02
sg9
F0.52
sg10
F0.0
sg11
F0.0
sg12
F0.86
sg13
F0.0
sg14
F0.6
sg15
F0.0
sg16
F0.0
sg17
F0.0
sg18
F0.18
sg19
F0.0
sg20
F0.78
sg21
F0.0
sg22
F0.0
sg23
F0.0
sg24
F0.04
sg25
F0.0
sg26
F0.16
sg27
F0.0
sg28
F0.08
sg29
F0.0
sg30
F0.0
sg31
F0.04
sg32
F0.0
sg33
F0.0
sg34
F0.0
sg35
F0.0
sg36
F0.0
sg37
F0.0
sg38
F0.0
sg39
F0.0
sg40
F0.0
sg41
F0.0
sg42
F0.0
sg43
F0.52
sg44
F0.14
sg45
F0.34
sg46
F0.0
sg47
F0.0
sg48
F0.04
sg49
F0.0
sg50
F0.28
sg51
F0.06
sg52
F0.0
sg53
F0.04
sg54
F0.0
sg55
F0.0
sg56
F0.0
sg57
F0.0
sg58
F0.0
sg59
F0.0
sg60
F0.1
sg61
F0.02
sg62
F0.0
sg63
F0.0
sg64
F0.0
sg65
F0.1
sg66
F0.02
sg67
F0.0
sg68
F0.0
sg69
F0.0
sg70
F0.0
sg71
F0.1
sg72
F0.14
sg73
F0.0
sg74
F0.94
sg75
F0.38
sg76
F0.0
sg77
F0.0
ssS'KeithWeir'
p163
(dp164
g2
F0.24
sg3
F0.04
sg4
F0.52
sg5
F0.02
sg6
F0.02
sg7
F0.28
sg8
F0.1
sg9
F0.46
sg10
F0.0
sg11
F0.48
sg12
F0.0
sg13
F0.0
sg14
F0.0
sg15
F0.0
sg16
F0.0
sg17
F0.0
sg18
F0.14
sg19
F0.02
sg20
F0.0
sg21
F0.0
sg22
F0.04
sg23
F0.0
sg24
F0.0
sg25
F0.0
sg26
F0.16
sg27
F0.12
sg28
F0.0
sg29
F0.04
sg30
F0.56
sg31
F0.14
sg32
F0.08
sg33
F0.0
sg34
F0.02
sg35
F0.0
sg36
F0.08
sg37
F0.0
sg38
F0.0
sg39
F0.0
sg40
F0.0
sg41
F0.0
sg42
F0.0
sg43
F0.46
sg44
F0.0
sg45
F0.2
sg46
F0.08
sg47
F0.0
sg48
F0.22
sg49
F0.32
sg50
F0.28
sg51
F0.0
sg52
F0.0
sg53
F0.04
sg54
F0.0
sg55
F0.0
sg56
F0.0
sg57
F0.0
sg58
F0.0
sg59
F0.0
sg60
F0.26
sg61
F0.16
sg62
F0.0
sg63
F0.1
sg64
F0.0
sg65
F0.08
sg66
F0.06
sg67
F0.02
sg68
F0.0
sg69
F0.0
sg70
F0.1
sg71
F0.34
sg72
F0.08
sg73
F0.0
sg74
F0.0
sg75
F0.14
sg76
F0.72
sg77
F0.0
ssS'EricAuchard'
p165
(dp166
g2
F0.48
sg3
F0.02
sg4
F0.86
sg5
F0.0
sg6
F0.14
sg7
F0.48
sg8
F0.16
sg9
F0.36
sg10
F0.14
sg11
F0.0
sg12
F0.0
sg13
F0.0
sg14
F0.0
sg15
F0.0
sg16
F0.0
sg17
F0.0
sg18
F0.12
sg19
F0.06
sg20
F0.0
sg21
F0.16
sg22
F0.0
sg23
F0.0
sg24
F0.06
sg25
F0.0
sg26
F0.18
sg27
F0.22
sg28
F0.2
sg29
F0.1
sg30
F0.0
sg31
F0.16
sg32
F0.02
sg33
F0.0
sg34
F0.0
sg35
F0.0
sg36
F0.02
sg37
F0.0
sg38
F0.0
sg39
F0.08
sg40
F0.02
sg41
F0.0
sg42
F0.0
sg43
F0.54
sg44
F0.0
sg45
F0.08
sg46
F0.0
sg47
F0.0
sg48
F0.3
sg49
F0.36
sg50
F0.28
sg51
F0.16
sg52
F0.0
sg53
F0.24
sg54
F0.14
sg55
F0.0
sg56
F0.0
sg57
F0.06
sg58
F0.0
sg59
F0.0
sg60
F0.08
sg61
F0.36
sg62
F0.0
sg63
F0.1
sg64
F0.0
sg65
F0.02
sg66
F0.0
sg67
F0.1
sg68
F0.0
sg69
F0.0
sg70
F0.1
sg71
F0.1
sg72
F0.14
sg73
F0.0
sg74
F0.0
sg75
F0.24
sg76
F0.0
sg77
F0.0
ssS'TheresePoletti'
p167
(dp168
g2
F0.12
sg3
F0.0
sg4
F0.86
sg5
F0.0
sg6
F0.4
sg7
F0.12
sg8
F0.02
sg9
F0.3
sg10
F0.62
sg11
F0.0
sg12
F0.0
sg13
F0.0
sg14
F0.0
sg15
F0.0
sg16
F0.0
sg17
F0.0
sg18
F0.08
sg19
F0.0
sg20
F0.0
sg21
F0.32
sg22
F0.0
sg23
F0.0
sg24
F0.38
sg25
F0.0
sg26
F0.06
sg27
F0.3
sg28
F0.08
sg29
F0.12
sg30
F0.0
sg31
F0.18
sg32
F0.06
sg33
F0.0
sg34
F0.0
sg35
F0.0
sg36
F0.0
sg37
F0.0
sg38
F0.0
sg39
F0.0
sg40
F0.0
sg41
F0.0
sg42
F0.0
sg43
F0.08
sg44
F0.0
sg45
F0.32
sg46
F0.0
sg47
F0.0
sg48
F0.4
sg49
F0.2
sg50
F0.36
sg51
F0.12
sg52
F0.0
sg53
F0.16
sg54
F0.62
sg55
F0.0
sg56
F0.0
sg57
F0.12
sg58
F0.0
sg59
F0.0
sg60
F0.24
sg61
F0.26
sg62
F0.0
sg63
F0.1
sg64
F0.0
sg65
F0.08
sg66
F0.02
sg67
F0.14
sg68
F0.0
sg69
F0.0
sg70
F0.1
sg71
F0.16
sg72
F0.04
sg73
F0.0
sg74
F0.0
sg75
F0.08
sg76
F0.0
sg77
F0.0
ssS"LynneO'Donnell"
p169
(dp170
g2
F0.78
sg3
F0.08
sg4
F0.26
sg5
F0.0
sg6
F0.0
sg7
F0.88
sg8
F0.02
sg9
F0.44
sg10
F0.0
sg11
F0.02
sg12
F0.62
sg13
F0.0
sg14
F0.28
sg15
F0.0
sg16
F0.0
sg17
F0.0
sg18
F0.16
sg19
F0.0
sg20
F0.02
sg21
F0.0
sg22
F0.02
sg23
F0.0
sg24
F0.04
sg25
F0.0
sg26
F0.22
sg27
F0.02
sg28
F0.0
sg29
F0.02
sg30
F0.0
sg31
F0.18
sg32
F0.0
sg33
F0.0
sg34
F0.0
sg35
F0.0
sg36
F0.0
sg37
F0.0
sg38
F0.0
sg39
F0.0
sg40
F0.0
sg41
F0.0
sg42
F0.0
sg43
F0.86
sg44
F0.02
sg45
F0.34
sg46
F0.0
sg47
F0.0
sg48
F0.12
sg49
F0.14
sg50
F0.3
sg51
F0.62
sg52
F0.0
sg53
F0.0
sg54
F0.0
sg55
F0.0
sg56
F0.0
sg57
F0.0
sg58
F0.0
sg59
F0.0
sg60
F0.12
sg61
F0.0
sg62
F0.0
sg63
F0.0
sg64
F0.0
sg65
F0.46
sg66
F0.0
sg67
F0.0
sg68
F0.0
sg69
F0.0
sg70
F0.0
sg71
F0.34
sg72
F0.44
sg73
F0.0
sg74
F0.02
sg75
F0.86
sg76
F0.0
sg77
F0.0
ssS'SimonCowell'
p171
(dp172
g2
F0.2
sg3
F0.0
sg4
F0.58
sg5
F0.04
sg6
F0.02
sg7
F0.14
sg8
F0.2
sg9
F0.46
sg10
F0.0
sg11
F0.64
sg12
F0.0
sg13
F0.0
sg14
F0.0
sg15
F0.0
sg16
F0.0
sg17
F0.0
sg18
F0.06
sg19
F0.02
sg20
F0.0
sg21
F0.0
sg22
F0.0
sg23
F0.0
sg24
F0.0
sg25
F0.0
sg26
F0.0
sg27
F0.22
sg28
F0.06
sg29
F0.0
sg30
F0.22
sg31
F0.26
sg32
F0.0
sg33
F0.0
sg34
F0.0
sg35
F0.0
sg36
F0.0
sg37
F0.0
sg38
F0.0
sg39
F0.0
sg40
F0.0
sg41
F0.0
sg42
F0.0
sg43
F0.18
sg44
F0.0
sg45
F0.08
sg46
F0.24
sg47
F0.0
sg48
F0.02
sg49
F0.42
sg50
F0.38
sg51
F0.16
sg52
F0.0
sg53
F0.06
sg54
F0.0
sg55
F0.0
sg56
F0.0
sg57
F0.0
sg58
F0.0
sg59
F0.0
sg60
F0.12
sg61
F0.1
sg62
F0.0
sg63
F0.0
sg64
F0.0
sg65
F0.02
sg66
F0.22
sg67
F0.0
sg68
F0.0
sg69
F0.0
sg70
F0.0
sg71
F0.08
sg72
F0.08
sg73
F0.0
sg74
F0.0
sg75
F0.14
sg76
F0.52
sg77
F0.0
ssS'JaneMacartney'
p173
(dp174
g2
F0.58
sg3
F0.04
sg4
F0.4
sg5
F0.0
sg6
F0.0
sg7
F0.56
sg8
F0.34
sg9
F0.44
sg10
F0.0
sg11
F0.02
sg12
F0.04
sg13
F0.0
sg14
F0.02
sg15
F0.0
sg16
F0.0
sg17
F0.0
sg18
F0.08
sg19
F0.04
sg20
F0.06
sg21
F0.0
sg22
F0.06
sg23
F0.0
sg24
F0.08
sg25
F0.0
sg26
F0.12
sg27
F0.0
sg28
F0.06
sg29
F0.04
sg30
F0.0
sg31
F0.24
sg32
F0.0
sg33
F0.0
sg34
F0.0
sg35
F0.0
sg36
F0.0
sg37
F0.0
sg38
F0.0
sg39
F0.0
sg40
F0.02
sg41
F0.0
sg42
F0.0
sg43
F0.56
sg44
F0.0
sg45
F0.22
sg46
F0.0
sg47
F0.0
sg48
F0.26
sg49
F0.0
sg50
F0.32
sg51
F0.26
sg52
F0.0
sg53
F0.12
sg54
F0.0
sg55
F0.0
sg56
F0.0
sg57
F0.0
sg58
F0.0
sg59
F0.0
sg60
F0.06
sg61
F0.0
sg62
F0.0
sg63
F0.0
sg64
F0.0
sg65
F0.44
sg66
F0.0
sg67
F0.0
sg68
F0.0
sg69
F0.0
sg70
F0.0
sg71
F0.42
sg72
F0.36
sg73
F0.0
sg74
F0.04
sg75
F0.5
sg76
F0.0
sg77
F0.0
ssS'SamuelPerry'
p175
(dp176
g2
F0.46
sg3
F0.04
sg4
F0.64
sg5
F0.0
sg6
F0.28
sg7
F0.56
sg8
F0.04
sg9
F0.28
sg10
F0.24
sg11
F0.0
sg12
F0.0
sg13
F0.0
sg14
F0.0
sg15
F0.0
sg16
F0.0
sg17
F0.0
sg18
F0.12
sg19
F0.02
sg20
F0.0
sg21
F0.28
sg22
F0.0
sg23
F0.0
sg24
F0.2
sg25
F0.0
sg26
F0.14
sg27
F0.12
sg28
F0.08
sg29
F0.22
sg30
F0.0
sg31
F0.18
sg32
F0.08
sg33
F0.04
sg34
F0.0
sg35
F0.0
sg36
F0.0
sg37
F0.0
sg38
F0.0
sg39
F0.02
sg40
F0.0
sg41
F0.0
sg42
F0.0
sg43
F0.62
sg44
F0.02
sg45
F0.2
sg46
F0.0
sg47
F0.0
sg48
F0.12
sg49
F0.24
sg50
F0.34
sg51
F0.22
sg52
F0.0
sg53
F0.12
sg54
F0.24
sg55
F0.0
sg56
F0.0
sg57
F0.08
sg58
F0.0
sg59
F0.0
sg60
F0.16
sg61
F0.24
sg62
F0.0
sg63
F0.04
sg64
F0.0
sg65
F0.04
sg66
F0.0
sg67
F0.08
sg68
F0.0
sg69
F0.0
sg70
F0.04
sg71
F0.1
sg72
F0.04
sg73
F0.0
sg74
F0.0
sg75
F0.26
sg76
F0.0
sg77
F0.0
ssS'MarkBendeich'
p177
(dp178
g2
F0.48
sg3
F0.1
sg4
F0.32
sg5
F0.04
sg6
F0.0
sg7
F0.54
sg8
F0.04
sg9
F0.44
sg10
F0.0
sg11
F0.0
sg12
F0.08
sg13
F0.0
sg14
F0.06
sg15
F0.0
sg16
F0.0
sg17
F0.0
sg18
F0.06
sg19
F0.14
sg20
F0.0
sg21
F0.0
sg22
F0.0
sg23
F0.0
sg24
F0.0
sg25
F0.06
sg26
F0.24
sg27
F0.1
sg28
F0.16
sg29
F0.14
sg30
F0.0
sg31
F0.16
sg32
F0.14
sg33
F0.0
sg34
F0.58
sg35
F0.0
sg36
F0.0
sg37
F0.0
sg38
F0.0
sg39
F0.0
sg40
F0.36
sg41
F0.0
sg42
F0.0
sg43
F0.76
sg44
F0.0
sg45
F0.4
sg46
F0.0
sg47
F0.0
sg48
F0.14
sg49
F0.06
sg50
F0.42
sg51
F0.18
sg52
F0.0
sg53
F0.04
sg54
F0.0
sg55
F0.0
sg56
F0.0
sg57
F0.0
sg58
F0.0
sg59
F0.0
sg60
F0.12
sg61
F0.2
sg62
F0.0
sg63
F0.0
sg64
F0.0
sg65
F0.22
sg66
F0.42
sg67
F0.0
sg68
F0.0
sg69
F0.0
sg70
F0.0
sg71
F0.14
sg72
F0.24
sg73
F0.0
sg74
F0.0
sg75
F0.46
sg76
F0.0
sg77
F0.0
sstp179
tp180
.