((lp0
((dp1
(dp2
S'AlexanderSmith'
p3
(dp4
sS'WilliamKazer'
p5
(dp6
sS'MarcelMichelson'
p7
(dp8
sS'KirstinRidley'
p9
(dp10
sS'JanLopatka'
p11
(dp12
sS'MichaelConnor'
p13
(dp14
sS'MartinWolk'
p15
(dp16
sS'ToddNissen'
p17
(dp18
sS'PatriciaCommins'
p19
(dp20
sS'KevinMorrison'
p21
(dp22
sS'HeatherScoffield'
p23
(dp24
sS'BradDorfman'
p25
(dp26
sS'DavidLawder'
p27
(dp28
sS'KevinDrawbaugh'
p29
(dp30
sS'LynnleyBrowning'
p31
(dp32
sS'ScottHillis'
p33
(dp34
sS'FumikoFujisaki'
p35
(dp36
sS'LydiaZajc'
p37
(dp38
sS'SarahDavison'
p39
(dp40
sS'GrahamEarnshaw'
p41
(dp42
sS'AaronPressman'
p43
(dp44
sS'JohnMastrini'
p45
(dp46
sS'NickLouth'
p47
(dp48
sS'PierreTran'
p49
(dp50
sS'RogerFillion'
p51
(dp52
sS'MatthewBunce'
p53
(dp54
sS'KouroshKarimkhany'
p55
(dp56
sS'JimGilchrist'
p57
(dp58
sS'DarrenSchuettler'
p59
(dp60
sS'TanEeLyn'
p61
(dp62
sS'JoeOrtiz'
p63
(dp64
sS'MureDickie'
p65
(dp66
sS'EdnaFernandes'
p67
(dp68
sS'JoWinterbottom'
p69
(dp70
sS'BenjaminKangLim'
p71
(dp72
sS'KarlPenhaul'
p73
(dp74
sS'JonathanBirt'
p75
(dp76
sS'BernardHickey'
p77
(dp78
sS'RobinSidel'
p79
(dp80
sS'AlanCrosby'
p81
(dp82
sS'TimFarrand'
p83
(dp84
sS'PeterHumphrey'
p85
(dp86
sS'KeithWeir'
p87
(dp88
sS'EricAuchard'
p89
(dp90
sS'TheresePoletti'
p91
(dp92
sS"LynneO'Donnell"
p93
(dp94
sS'SimonCowell'
p95
(dp96
sS'JaneMacartney'
p97
(dp98
sS'SamuelPerry'
p99
(dp100
sS'MarkBendeich'
p101
(dp102
stp103
tp104
.