ccopy_reg
_reconstructor
p0
(cnltk.classify.naivebayes
NaiveBayesClassifier
p1
c__builtin__
object
p2
Ntp3
Rp4
(dp5
S'_labels'
p6
(lp7
S'AaronPressman'
p8
aS'AlanCrosby'
p9
asS'_feature_probdist'
p10
(dp11
(g8
S"skip:(the,'s,the)>0"
p12
tp13
g0
(cnltk.probability
ELEProbDist
p14
g2
Ntp15
Rp16
(dp17
S'_gamma'
p18
F0.5
sS'_N'
p19
I45
sS'_freqdist'
p20
g0
(cnltk.probability
FreqDist
p21
c__builtin__
dict
p22
(dp23
I00
I39
sI01
I6
stp24
Rp25
(dp26
g19
I45
sS'_max_cache'
p27
NsS'_item_cache'
p28
NsS'_Nr_cache'
p29
NsbsS'_bins'
p30
I3
sS'_divisor'
p31
F46.5
sbs(g9
S'wrd:that>0'
p32
tp33
g0
(g14
g2
Ntp34
Rp35
(dp36
g18
F0.5
sg19
I45
sg20
g0
(g21
g22
(dp37
I00
I3
sI01
I42
stp38
Rp39
(dp40
g19
I45
sg27
Nsg28
Nsg29
Nsbsg30
I3
sg31
F46.5
sbs(g8
S'skip:(for,of,.)>0'
p41
tp42
g0
(g14
g2
Ntp43
Rp44
(dp45
g18
F0.5
sg19
I45
sg20
g0
(g21
g22
(dp46
I00
I44
sI01
I1
stp47
Rp48
(dp49
g19
I45
sg27
Nsg28
Nsg29
Nsbsg30
I3
sg31
F46.5
sbs(g8
S'tri:(of,the,internet)>0'
p50
tp51
g0
(g14
g2
Ntp52
Rp53
(dp54
g18
F0.5
sg19
I45
sg20
g0
(g21
g22
(dp55
I00
I36
sI01
I9
stp56
Rp57
(dp58
g19
I45
sg27
Nsg28
Nsg29
Nsbsg30
I3
sg31
F46.5
sbs(g9
S'wrd:but>0'
p59
tp60
g0
(g14
g2
Ntp61
Rp62
(dp63
g18
F0.5
sg19
I45
sg20
g0
(g21
g22
(dp64
I00
I4
sI01
I41
stp65
Rp66
(dp67
g19
I45
sg27
Nsg28
Nsg29
Nsbsg30
I3
sg31
F46.5
sbs(g9
S'tri:(president,of,the)>0'
p68
tp69
g0
(g14
g2
Ntp70
Rp71
(dp72
g18
F0.5
sg19
I45
sg20
g0
(g21
g22
(dp73
I00
I45
stp74
Rp75
(dp76
g19
I45
sg27
Nsg28
Nsg29
Nsbsg30
I3
sg31
F46.5
sbs(g9
S"tri:(,,'',said)>0"
p77
tp78
g0
(g14
g2
Ntp79
Rp80
(dp81
g18
F0.5
sg19
I45
sg20
g0
(g21
g22
(dp82
I00
I11
sI01
I34
stp83
Rp84
(dp85
g19
I45
sg27
Nsg28
Nsg29
Nsbsg30
I3
sg31
F46.5
sbs(g9
S'wrd:from>0'
p86
tp87
g0
(g14
g2
Ntp88
Rp89
(dp90
g18
F0.5
sg19
I45
sg20
g0
(g21
g22
(dp91
I00
I6
sI01
I39
stp92
Rp93
(dp94
g19
I45
sg27
Nsg28
Nsg29
Nsbsg30
I3
sg31
F46.5
sbs(g9
S'skip:(,,(,,)>0'
p95
tp96
g0
(g14
g2
Ntp97
Rp98
(dp99
g18
F0.5
sg19
I45
sg20
g0
(g21
g22
(dp100
I00
I43
sI01
I2
stp101
Rp102
(dp103
g19
I45
sg27
Nsg28
Nsg29
Nsbsg30
I3
sg31
F46.5
sbs(g8
S'skip:(,,in,,)>0'
p104
tp105
g0
(g14
g2
Ntp106
Rp107
(dp108
g18
F0.5
sg19
I45
sg20
g0
(g21
g22
(dp109
I00
I44
sI01
I1
stp110
Rp111
(dp112
g19
I45
sg27
Nsg28
Nsg29
Nsbsg30
I3
sg31
F46.5
sbs(g9
S'skip:(market,said,of)>0'
p113
tp114
g0
(g14
g2
Ntp115
Rp116
(dp117
g18
F0.5
sg19
I45
sg20
g0
(g21
g22
(dp118
I00
I41
sI01
I4
stp119
Rp120
(dp121
g19
I45
sg27
Nsg28
Nsg29
Nsbsg30
I3
sg31
F46.5
sbs(g9
S'wrd:internet>0'
p122
tp123
g0
(g14
g2
Ntp124
Rp125
(dp126
g18
F0.5
sg19
I45
sg20
g0
(g21
g22
(dp127
I00
I45
stp128
Rp129
(dp130
g19
I45
sg27
Nsg28
Nsg29
Nsbsg30
I3
sg31
F46.5
sbs(g9
S'bi:(billion,crowns)>0'
p131
tp132
g0
(g14
g2
Ntp133
Rp134
(dp135
g18
F0.5
sg19
I45
sg20
g0
(g21
g22
(dp136
I00
I34
sI01
I11
stp137
Rp138
(dp139
g19
I45
sg27
Nsg28
Nsg29
Nsbsg30
I3
sg31
F46.5
sbs(g9
S'skip:(render,without,or)>0'
p140
tp141
g0
(g14
g2
Ntp142
Rp143
(dp144
g18
F0.5
sg19
I45
sg20
g0
(g21
g22
(dp145
I00
I45
stp146
Rp147
(dp148
g19
I45
sg27
Nsg28
Nsg29
Nsbsg30
I3
sg31
F46.5
sbs(g8
S'skip:(.,,,,)>0'
p149
tp150
g0
(g14
g2
Ntp151
Rp152
(dp153
g18
F0.5
sg19
I45
sg20
g0
(g21
g22
(dp154
I00
I39
sI01
I6
stp155
Rp156
(dp157
g19
I45
sg27
Nsg28
Nsg29
Nsbsg30
I3
sg31
F46.5
sbs(g8
S'wrd:is>0'
p158
tp159
g0
(g14
g2
Ntp160
Rp161
(dp162
g18
F0.5
sg19
I45
sg20
g0
(g21
g22
(dp163
I00
I2
sI01
I43
stp164
Rp165
(dp166
g19
I45
sg27
Nsg28
Nsg29
Nsbsg30
I3
sg31
F46.5
sbs(g9
S'bi:(in,a)>0'
p167
tp168
g0
(g14
g2
Ntp169
Rp170
(dp171
g18
F0.5
sg19
I45
sg20
g0
(g21
g22
(dp172
I00
I19
sI01
I26
stp173
Rp174
(dp175
g19
I45
sg27
Nsg28
Nsg29
Nsbsg30
I3
sg31
F46.5
sbs(g9
S'wrd:.>0'
p176
tp177
g0
(g14
g2
Ntp178
Rp179
(dp180
g18
F0.5
sg19
I45
sg20
g0
(g21
g22
(dp181
I01
I45
stp182
Rp183
(dp184
g19
I45
sg27
Nsg28
Nsg29
Nsbsg30
I2
sg31
F46.0
sbs(g9
S"skip:('',local,.)>0"
p185
tp186
g0
(g14
g2
Ntp187
Rp188
(dp189
g18
F0.5
sg19
I45
sg20
g0
(g21
g22
(dp190
I00
I40
sI01
I5
stp191
Rp192
(dp193
g19
I45
sg27
Nsg28
Nsg29
Nsbsg30
I3
sg31
F46.5
sbs(g8
S'bi:(the,czech)>0'
p194
tp195
g0
(g14
g2
Ntp196
Rp197
(dp198
g18
F0.5
sg19
I45
sg20
g0
(g21
g22
(dp199
I00
I45
stp200
Rp201
(dp202
g19
I45
sg27
Nsg28
Nsg29
Nsbsg30
I3
sg31
F46.5
sbs(g8
S"tri:(i,do,n't)>0"
p203
tp204
g0
(g14
g2
Ntp205
Rp206
(dp207
g18
F0.5
sg19
I45
sg20
g0
(g21
g22
(dp208
I00
I45
stp209
Rp210
(dp211
g19
I45
sg27
Nsg28
Nsg29
Nsbsg30
I3
sg31
F46.5
sbs(g9
S"wrd:'s>0"
p212
tp213
g0
(g14
g2
Ntp214
Rp215
(dp216
g18
F0.5
sg19
I45
sg20
g0
(g21
g22
(dp217
I00
I45
stp218
Rp219
(dp220
g19
I45
sg27
Nsg28
Nsg29
Nsbsg30
I2
sg31
F46.0
sbs(g9
S'wrd:it>0'
p221
tp222
g0
(g14
g2
Ntp223
Rp224
(dp225
g18
F0.5
sg19
I45
sg20
g0
(g21
g22
(dp226
I00
I11
sI01
I34
stp227
Rp228
(dp229
g19
I45
sg27
Nsg28
Nsg29
Nsbsg30
I3
sg31
F46.5
sbs(g9
S'skip:(said,of,.)>0'
p230
tp231
g0
(g14
g2
Ntp232
Rp233
(dp234
g18
F0.5
sg19
I45
sg20
g0
(g21
g22
(dp235
I00
I38
sI01
I7
stp236
Rp237
(dp238
g19
I45
sg27
Nsg28
Nsg29
Nsbsg30
I3
sg31
F46.5
sbs(g9
S'tri:(prague,newsroom,,)>0'
p239
tp240
g0
(g14
g2
Ntp241
Rp242
(dp243
g18
F0.5
sg19
I45
sg20
g0
(g21
g22
(dp244
I00
I32
sI01
I13
stp245
Rp246
(dp247
g19
I45
sg27
Nsg28
Nsg29
Nsbsg30
I3
sg31
F46.5
sbs(g9
S'wrd:be>0'
p248
tp249
g0
(g14
g2
Ntp250
Rp251
(dp252
g18
F0.5
sg19
I45
sg20
g0
(g21
g22
(dp253
I00
I7
sI01
I38
stp254
Rp255
(dp256
g19
I45
sg27
Nsg28
Nsg29
Nsbsg30
I3
sg31
F46.5
sbs(g9
S'wrd:a>0'
p257
tp258
g0
(g14
g2
Ntp259
Rp260
(dp261
g18
F0.5
sg19
I45
sg20
g0
(g21
g22
(dp262
I01
I45
stp263
Rp264
(dp265
g19
I45
sg27
Nsg28
Nsg29
Nsbsg30
I2
sg31
F46.0
sbs(g9
S'wrd:to>0'
p266
tp267
g0
(g14
g2
Ntp268
Rp269
(dp270
g18
F0.5
sg19
I45
sg20
g0
(g21
g22
(dp271
I01
I45
stp272
Rp273
(dp274
g19
I45
sg27
Nsg28
Nsg29
Nsbsg30
I2
sg31
F46.0
sbs(g9
S'tri:(on,the,internet)>0'
p275
tp276
g0
(g14
g2
Ntp277
Rp278
(dp279
g18
F0.5
sg19
I45
sg20
g0
(g21
g22
(dp280
I00
I45
stp281
Rp282
(dp283
g19
I45
sg27
Nsg28
Nsg29
Nsbsg30
I3
sg31
F46.5
sbs(g9
S'bi:(,,and)>0'
p284
tp285
g0
(g14
g2
Ntp286
Rp287
(dp288
g18
F0.5
sg19
I45
sg20
g0
(g21
g22
(dp289
I00
I17
sI01
I28
stp290
Rp291
(dp292
g19
I45
sg27
Nsg28
Nsg29
Nsbsg30
I3
sg31
F46.5
sbs(g9
S'skip:(said,,,at)>0'
p293
tp294
g0
(g14
g2
Ntp295
Rp296
(dp297
g18
F0.5
sg19
I45
sg20
g0
(g21
g22
(dp298
I00
I33
sI01
I12
stp299
Rp300
(dp301
g19
I45
sg27
Nsg28
Nsg29
Nsbsg30
I3
sg31
F46.5
sbs(g9
g50
tp302
g0
(g14
g2
Ntp303
Rp304
(dp305
g18
F0.5
sg19
I45
sg20
g0
(g21
g22
(dp306
I00
I45
stp307
Rp308
(dp309
g19
I45
sg27
Nsg28
Nsg29
Nsbsg30
I3
sg31
F46.5
sbs(g9
S"bi:(.,'')>0"
p310
tp311
g0
(g14
g2
Ntp312
Rp313
(dp314
g18
F0.5
sg19
I45
sg20
g0
(g21
g22
(dp315
I00
I2
sI01
I43
stp316
Rp317
(dp318
g19
I45
sg27
Nsg28
Nsg29
Nsbsg30
I3
sg31
F46.5
sbs(g9
S'tri:(.,--,prague)>0'
p319
tp320
g0
(g14
g2
Ntp321
Rp322
(dp323
g18
F0.5
sg19
I45
sg20
g0
(g21
g22
(dp324
I00
I33
sI01
I12
stp325
Rp326
(dp327
g19
I45
sg27
Nsg28
Nsg29
Nsbsg30
I3
sg31
F46.5
sbs(g8
S'tri:(the,clinton,administration)>0'
p328
tp329
g0
(g14
g2
Ntp330
Rp331
(dp332
g18
F0.5
sg19
I45
sg20
g0
(g21
g22
(dp333
I00
I36
sI01
I9
stp334
Rp335
(dp336
g19
I45
sg27
Nsg28
Nsg29
Nsbsg30
I3
sg31
F46.5
sbs(g8
g275
tp337
g0
(g14
g2
Ntp338
Rp339
(dp340
g18
F0.5
sg19
I45
sg20
g0
(g21
g22
(dp341
I00
I32
sI01
I13
stp342
Rp343
(dp344
g19
I45
sg27
Nsg28
Nsg29
Nsbsg30
I3
sg31
F46.5
sbs(g8
S"bi:('',said)>0"
p345
tp346
g0
(g14
g2
Ntp347
Rp348
(dp349
g18
F0.5
sg19
I45
sg20
g0
(g21
g22
(dp350
I00
I22
sI01
I23
stp351
Rp352
(dp353
g19
I45
sg27
Nsg28
Nsg29
Nsbsg30
I3
sg31
F46.5
sbs(g8
S"skip:('',,,the)>0"
p354
tp355
g0
(g14
g2
Ntp356
Rp357
(dp358
g18
F0.5
sg19
I45
sg20
g0
(g21
g22
(dp359
I00
I39
sI01
I6
stp360
Rp361
(dp362
g19
I45
sg27
Nsg28
Nsg29
Nsbsg30
I3
sg31
F46.5
sbs(g9
S'skip:(the,.,is)>0'
p363
tp364
g0
(g14
g2
Ntp365
Rp366
(dp367
g18
F0.5
sg19
I45
sg20
g0
(g21
g22
(dp368
I00
I45
stp369
Rp370
(dp371
g19
I45
sg27
Nsg28
Nsg29
Nsbsg30
I3
sg31
F46.5
sbs(g9
S'bi:(.,the)>0'
p372
tp373
g0
(g14
g2
Ntp374
Rp375
(dp376
g18
F0.5
sg19
I45
sg20
g0
(g21
g22
(dp377
I00
I3
sI01
I42
stp378
Rp379
(dp380
g19
I45
sg27
Nsg28
Nsg29
Nsbsg30
I3
sg31
F46.5
sbs(g8
S'wrd:for>0'
p381
tp382
g0
(g14
g2
Ntp383
Rp384
(dp385
g18
F0.5
sg19
I45
sg20
g0
(g21
g22
(dp386
I00
I3
sI01
I42
stp387
Rp388
(dp389
g19
I45
sg27
Nsg28
Nsg29
Nsbsg30
I3
sg31
F46.5
sbs(g8
S'wrd:market>0'
p390
tp391
g0
(g14
g2
Ntp392
Rp393
(dp394
g18
F0.5
sg19
I45
sg20
g0
(g21
g22
(dp395
I00
I28
sI01
I17
stp396
Rp397
(dp398
g19
I45
sg27
Nsg28
Nsg29
Nsbsg30
I3
sg31
F46.5
sbs(g9
S"tri:('',he,said)>0"
p399
tp400
g0
(g14
g2
Ntp401
Rp402
(dp403
g18
F0.5
sg19
I45
sg20
g0
(g21
g22
(dp404
I00
I40
sI01
I5
stp405
Rp406
(dp407
g19
I45
sg27
Nsg28
Nsg29
Nsbsg30
I3
sg31
F46.5
sbs(g8
S'tri:(the,second,round)>0'
p408
tp409
g0
(g14
g2
Ntp410
Rp411
(dp412
g18
F0.5
sg19
I45
sg20
g0
(g21
g22
(dp413
I00
I45
stp414
Rp415
(dp416
g19
I45
sg27
Nsg28
Nsg29
Nsbsg30
I3
sg31
F46.5
sbs(g9
S'bi:(on,the)>0'
p417
tp418
g0
(g14
g2
Ntp419
Rp420
(dp421
g18
F0.5
sg19
I45
sg20
g0
(g21
g22
(dp422
I00
I18
sI01
I27
stp423
Rp424
(dp425
g19
I45
sg27
Nsg28
Nsg29
Nsbsg30
I3
sg31
F46.5
sbs(g9
S'wrd:czech>0'
p426
tp427
g0
(g14
g2
Ntp428
Rp429
(dp430
g18
F0.5
sg19
I45
sg20
g0
(g21
g22
(dp431
I00
I1
sI01
I44
stp432
Rp433
(dp434
g19
I45
sg27
Nsg28
Nsg29
Nsbsg30
I3
sg31
F46.5
sbs(g9
S'tri:(round,of,voting)>0'
p435
tp436
g0
(g14
g2
Ntp437
Rp438
(dp439
g18
F0.5
sg19
I45
sg20
g0
(g21
g22
(dp440
I00
I39
sI01
I6
stp441
Rp442
(dp443
g19
I45
sg27
Nsg28
Nsg29
Nsbsg30
I3
sg31
F46.5
sbs(g9
S'tri:(said,.,the)>0'
p444
tp445
g0
(g14
g2
Ntp446
Rp447
(dp448
g18
F0.5
sg19
I45
sg20
g0
(g21
g22
(dp449
I00
I42
sI01
I3
stp450
Rp451
(dp452
g19
I45
sg27
Nsg28
Nsg29
Nsbsg30
I3
sg31
F46.5
sbs(g8
S'tri:(for,example,,)>0'
p453
tp454
g0
(g14
g2
Ntp455
Rp456
(dp457
g18
F0.5
sg19
I45
sg20
g0
(g21
g22
(dp458
I00
I33
sI01
I12
stp459
Rp460
(dp461
g19
I45
sg27
Nsg28
Nsg29
Nsbsg30
I3
sg31
F46.5
sbs(g9
S'bi:(the,market)>0'
p462
tp463
g0
(g14
g2
Ntp464
Rp465
(dp466
g18
F0.5
sg19
I45
sg20
g0
(g21
g22
(dp467
I00
I29
sI01
I16
stp468
Rp469
(dp470
g19
I45
sg27
Nsg28
Nsg29
Nsbsg30
I3
sg31
F46.5
sbs(g8
S"tri:(,,'',he)>0"
p471
tp472
g0
(g14
g2
Ntp473
Rp474
(dp475
g18
F0.5
sg19
I45
sg20
g0
(g21
g22
(dp476
I00
I27
sI01
I18
stp477
Rp478
(dp479
g19
I45
sg27
Nsg28
Nsg29
Nsbsg30
I3
sg31
F46.5
sbs(g9
S'wrd:at>0'
p480
tp481
g0
(g14
g2
Ntp482
Rp483
(dp484
g18
F0.5
sg19
I45
sg20
g0
(g21
g22
(dp485
I00
I7
sI01
I38
stp486
Rp487
(dp488
g19
I45
sg27
Nsg28
Nsg29
Nsbsg30
I3
sg31
F46.5
sbs(g9
S'skip:(the,an,.)>0'
p489
tp490
g0
(g14
g2
Ntp491
Rp492
(dp493
g18
F0.5
sg19
I45
sg20
g0
(g21
g22
(dp494
I00
I45
stp495
Rp496
(dp497
g19
I45
sg27
Nsg28
Nsg29
Nsbsg30
I3
sg31
F46.5
sbs(g8
S'bi:(on,thursday)>0'
p498
tp499
g0
(g14
g2
Ntp500
Rp501
(dp502
g18
F0.5
sg19
I45
sg20
g0
(g21
g22
(dp503
I00
I44
sI01
I1
stp504
Rp505
(dp506
g19
I45
sg27
Nsg28
Nsg29
Nsbsg30
I3
sg31
F46.5
sbs(g9
S"bi:(,,'')>0"
p507
tp508
g0
(g14
g2
Ntp509
Rp510
(dp511
g18
F0.5
sg19
I45
sg20
g0
(g21
g22
(dp512
I00
I1
sI01
I44
stp513
Rp514
(dp515
g19
I45
sg27
Nsg28
Nsg29
Nsbsg30
I3
sg31
F46.5
sbs(g9
S'tri:(in,the,first)>0'
p516
tp517
g0
(g14
g2
Ntp518
Rp519
(dp520
g18
F0.5
sg19
I45
sg20
g0
(g21
g22
(dp521
I00
I30
sI01
I15
stp522
Rp523
(dp524
g19
I45
sg27
Nsg28
Nsg29
Nsbsg30
I3
sg31
F46.5
sbs(g9
S'tri:(the,czech,republic)>0'
p525
tp526
g0
(g14
g2
Ntp527
Rp528
(dp529
g18
F0.5
sg19
I45
sg20
g0
(g21
g22
(dp530
I00
I34
sI01
I11
stp531
Rp532
(dp533
g19
I45
sg27
Nsg28
Nsg29
Nsbsg30
I3
sg31
F46.5
sbs(g8
S'skip:(,,the,association)>0'
p534
tp535
g0
(g14
g2
Ntp536
Rp537
(dp538
g18
F0.5
sg19
I45
sg20
g0
(g21
g22
(dp539
I00
I38
sI01
I7
stp540
Rp541
(dp542
g19
I45
sg27
Nsg28
Nsg29
Nsbsg30
I3
sg31
F46.5
sbs(g9
S"tri:(.,'',the)>0"
p543
tp544
g0
(g14
g2
Ntp545
Rp546
(dp547
g18
F0.5
sg19
I45
sg20
g0
(g21
g22
(dp548
I00
I28
sI01
I17
stp549
Rp550
(dp551
g19
I45
sg27
Nsg28
Nsg29
Nsbsg30
I3
sg31
F46.5
sbs(g8
S'bi:(,,a)>0'
p552
tp553
g0
(g14
g2
Ntp554
Rp555
(dp556
g18
F0.5
sg19
I45
sg20
g0
(g21
g22
(dp557
I00
I21
sI01
I24
stp558
Rp559
(dp560
g19
I45
sg27
Nsg28
Nsg29
Nsbsg30
I3
sg31
F46.5
sbs(g8
S'bi:(with,the)>0'
p561
tp562
g0
(g14
g2
Ntp563
Rp564
(dp565
g18
F0.5
sg19
I45
sg20
g0
(g21
g22
(dp566
I00
I26
sI01
I19
stp567
Rp568
(dp569
g19
I45
sg27
Nsg28
Nsg29
Nsbsg30
I3
sg31
F46.5
sbs(g8
S'tri:(analysts,said,that)>0'
p570
tp571
g0
(g14
g2
Ntp572
Rp573
(dp574
g18
F0.5
sg19
I45
sg20
g0
(g21
g22
(dp575
I00
I45
stp576
Rp577
(dp578
g19
I45
sg27
Nsg28
Nsg29
Nsbsg30
I3
sg31
F46.5
sbs(g9
S'tri:(.,analysts,said)>0'
p579
tp580
g0
(g14
g2
Ntp581
Rp582
(dp583
g18
F0.5
sg19
I45
sg20
g0
(g21
g22
(dp584
I00
I32
sI01
I13
stp585
Rp586
(dp587
g19
I45
sg27
Nsg28
Nsg29
Nsbsg30
I3
sg31
F46.5
sbs(g8
S'skip:(,,,,()>0'
p588
tp589
g0
(g14
g2
Ntp590
Rp591
(dp592
g18
F0.5
sg19
I45
sg20
g0
(g21
g22
(dp593
I00
I45
stp594
Rp595
(dp596
g19
I45
sg27
Nsg28
Nsg29
Nsbsg30
I3
sg31
F46.5
sbs(g8
g176
tp597
g0
(g14
g2
Ntp598
Rp599
(dp600
g18
F0.5
sg19
I45
sg20
g0
(g21
g22
(dp601
I01
I45
stp602
Rp603
(dp604
g19
I45
sg27
Nsg28
Nsg29
Nsbsg30
I2
sg31
F46.0
sbs(g8
g95
tp605
g0
(g14
g2
Ntp606
Rp607
(dp608
g18
F0.5
sg19
I45
sg20
g0
(g21
g22
(dp609
I00
I45
stp610
Rp611
(dp612
g19
I45
sg27
Nsg28
Nsg29
Nsbsg30
I3
sg31
F46.5
sbs(g8
S'skip:(of,,,the)>0'
p613
tp614
g0
(g14
g2
Ntp615
Rp616
(dp617
g18
F0.5
sg19
I45
sg20
g0
(g21
g22
(dp618
I00
I45
stp619
Rp620
(dp621
g19
I45
sg27
Nsg28
Nsg29
Nsbsg30
I3
sg31
F46.5
sbs(g9
S"skip:(``,,,'')>0"
p622
tp623
g0
(g14
g2
Ntp624
Rp625
(dp626
g18
F0.5
sg19
I45
sg20
g0
(g21
g22
(dp627
I00
I45
stp628
Rp629
(dp630
g19
I45
sg27
Nsg28
Nsg29
Nsbsg30
I3
sg31
F46.5
sbs(g9
S'skip:(the,the,the)>0'
p631
tp632
g0
(g14
g2
Ntp633
Rp634
(dp635
g18
F0.5
sg19
I45
sg20
g0
(g21
g22
(dp636
I00
I36
sI01
I9
stp637
Rp638
(dp639
g19
I45
sg27
Nsg28
Nsg29
Nsbsg30
I3
sg31
F46.5
sbs(g8
S'skip:(,,the,the)>0'
p640
tp641
g0
(g14
g2
Ntp642
Rp643
(dp644
g18
F0.5
sg19
I45
sg20
g0
(g21
g22
(dp645
I00
I44
sI01
I1
stp646
Rp647
(dp648
g19
I45
sg27
Nsg28
Nsg29
Nsbsg30
I3
sg31
F46.5
sbs(g8
g363
tp649
g0
(g14
g2
Ntp650
Rp651
(dp652
g18
F0.5
sg19
I45
sg20
g0
(g21
g22
(dp653
I00
I41
sI01
I4
stp654
Rp655
(dp656
g19
I45
sg27
Nsg28
Nsg29
Nsbsg30
I3
sg31
F46.5
sbs(g9
S'tri:(.,``,it)>0'
p657
tp658
g0
(g14
g2
Ntp659
Rp660
(dp661
g18
F0.5
sg19
I45
sg20
g0
(g21
g22
(dp662
I00
I44
sI01
I1
stp663
Rp664
(dp665
g19
I45
sg27
Nsg28
Nsg29
Nsbsg30
I3
sg31
F46.5
sbs(g9
S'tri:(the,internet,.)>0'
p666
tp667
g0
(g14
g2
Ntp668
Rp669
(dp670
g18
F0.5
sg19
I45
sg20
g0
(g21
g22
(dp671
I00
I45
stp672
Rp673
(dp674
g19
I45
sg27
Nsg28
Nsg29
Nsbsg30
I3
sg31
F46.5
sbs(g8
S'bi:(stock,exchange)>0'
p675
tp676
g0
(g14
g2
Ntp677
Rp678
(dp679
g18
F0.5
sg19
I45
sg20
g0
(g21
g22
(dp680
I00
I45
stp681
Rp682
(dp683
g19
I45
sg27
Nsg28
Nsg29
Nsbsg30
I3
sg31
F46.5
sbs(g8
g77
tp684
g0
(g14
g2
Ntp685
Rp686
(dp687
g18
F0.5
sg19
I45
sg20
g0
(g21
g22
(dp688
I00
I22
sI01
I23
stp689
Rp690
(dp691
g19
I45
sg27
Nsg28
Nsg29
Nsbsg30
I3
sg31
F46.5
sbs(g8
g579
tp692
g0
(g14
g2
Ntp693
Rp694
(dp695
g18
F0.5
sg19
I45
sg20
g0
(g21
g22
(dp696
I00
I45
stp697
Rp698
(dp699
g19
I45
sg27
Nsg28
Nsg29
Nsbsg30
I3
sg31
F46.5
sbs(g8
g167
tp700
g0
(g14
g2
Ntp701
Rp702
(dp703
g18
F0.5
sg19
I45
sg20
g0
(g21
g22
(dp704
I00
I24
sI01
I21
stp705
Rp706
(dp707
g19
I45
sg27
Nsg28
Nsg29
Nsbsg30
I3
sg31
F46.5
sbs(g9
S"wrd:''>0"
p708
tp709
g0
(g14
g2
Ntp710
Rp711
(dp712
g18
F0.5
sg19
I45
sg20
g0
(g21
g22
(dp713
I00
I45
stp714
Rp715
(dp716
g19
I45
sg27
Nsg28
Nsg29
Nsbsg30
I2
sg31
F46.0
sbs(g8
S'bi:(by,the)>0'
p717
tp718
g0
(g14
g2
Ntp719
Rp720
(dp721
g18
F0.5
sg19
I45
sg20
g0
(g21
g22
(dp722
I00
I20
sI01
I25
stp723
Rp724
(dp725
g19
I45
sg27
Nsg28
Nsg29
Nsbsg30
I3
sg31
F46.5
sbs(g8
S'bi:(.,``)>0'
p726
tp727
g0
(g14
g2
Ntp728
Rp729
(dp730
g18
F0.5
sg19
I45
sg20
g0
(g21
g22
(dp731
I00
I19
sI01
I26
stp732
Rp733
(dp734
g19
I45
sg27
Nsg28
Nsg29
Nsbsg30
I3
sg31
F46.5
sbs(g9
S'wrd:as>0'
p735
tp736
g0
(g14
g2
Ntp737
Rp738
(dp739
g18
F0.5
sg19
I45
sg20
g0
(g21
g22
(dp740
I00
I8
sI01
I37
stp741
Rp742
(dp743
g19
I45
sg27
Nsg28
Nsg29
Nsbsg30
I3
sg31
F46.5
sbs(g8
S"tri:(.,'',we)>0"
p744
tp745
g0
(g14
g2
Ntp746
Rp747
(dp748
g18
F0.5
sg19
I45
sg20
g0
(g21
g22
(dp749
I00
I34
sI01
I11
stp750
Rp751
(dp752
g19
I45
sg27
Nsg28
Nsg29
Nsbsg30
I3
sg31
F46.5
sbs(g8
S'bi:(he,said)>0'
p753
tp754
g0
(g14
g2
Ntp755
Rp756
(dp757
g18
F0.5
sg19
I45
sg20
g0
(g21
g22
(dp758
I00
I25
sI01
I20
stp759
Rp760
(dp761
g19
I45
sg27
Nsg28
Nsg29
Nsbsg30
I3
sg31
F46.5
sbs(g9
S'tri:(said,.,``)>0'
p762
tp763
g0
(g14
g2
Ntp764
Rp765
(dp766
g18
F0.5
sg19
I45
sg20
g0
(g21
g22
(dp767
I00
I42
sI01
I3
stp768
Rp769
(dp770
g19
I45
sg27
Nsg28
Nsg29
Nsbsg30
I3
sg31
F46.5
sbs(g9
S'skip:(the,.,,)>0'
p771
tp772
g0
(g14
g2
Ntp773
Rp774
(dp775
g18
F0.5
sg19
I45
sg20
g0
(g21
g22
(dp776
I00
I44
sI01
I1
stp777
Rp778
(dp779
g19
I45
sg27
Nsg28
Nsg29
Nsbsg30
I3
sg31
F46.5
sbs(g9
S'skip:(;,(,))>0'
p780
tp781
g0
(g14
g2
Ntp782
Rp783
(dp784
g18
F0.5
sg19
I45
sg20
g0
(g21
g22
(dp785
I00
I40
sI01
I5
stp786
Rp787
(dp788
g19
I45
sg27
Nsg28
Nsg29
Nsbsg30
I3
sg31
F46.5
sbs(g8
S"tri:(said,.,'')>0"
p789
tp790
g0
(g14
g2
Ntp791
Rp792
(dp793
g18
F0.5
sg19
I45
sg20
g0
(g21
g22
(dp794
I00
I34
sI01
I11
stp795
Rp796
(dp797
g19
I45
sg27
Nsg28
Nsg29
Nsbsg30
I3
sg31
F46.5
sbs(g9
S"skip:(password,``,'')>0"
p798
tp799
g0
(g14
g2
Ntp800
Rp801
(dp802
g18
F0.5
sg19
I45
sg20
g0
(g21
g22
(dp803
I00
I45
stp804
Rp805
(dp806
g19
I45
sg27
Nsg28
Nsg29
Nsbsg30
I3
sg31
F46.5
sbs(g9
g570
tp807
g0
(g14
g2
Ntp808
Rp809
(dp810
g18
F0.5
sg19
I45
sg20
g0
(g21
g22
(dp811
I00
I37
sI01
I8
stp812
Rp813
(dp814
g19
I45
sg27
Nsg28
Nsg29
Nsbsg30
I3
sg31
F46.5
sbs(g9
g588
tp815
g0
(g14
g2
Ntp816
Rp817
(dp818
g18
F0.5
sg19
I45
sg20
g0
(g21
g22
(dp819
I00
I43
sI01
I2
stp820
Rp821
(dp822
g19
I45
sg27
Nsg28
Nsg29
Nsbsg30
I3
sg31
F46.5
sbs(g8
S'tri:(he,said,.)>0'
p823
tp824
g0
(g14
g2
Ntp825
Rp826
(dp827
g18
F0.5
sg19
I45
sg20
g0
(g21
g22
(dp828
I00
I27
sI01
I18
stp829
Rp830
(dp831
g19
I45
sg27
Nsg28
Nsg29
Nsbsg30
I3
sg31
F46.5
sbs(g8
S'bi:(the,internet)>0'
p832
tp833
g0
(g14
g2
Ntp834
Rp835
(dp836
g18
F0.5
sg19
I45
sg20
g0
(g21
g22
(dp837
I00
I20
sI01
I25
stp838
Rp839
(dp840
g19
I45
sg27
Nsg28
Nsg29
Nsbsg30
I3
sg31
F46.5
sbs(g9
S"skip:('',there,a)>0"
p841
tp842
g0
(g14
g2
Ntp843
Rp844
(dp845
g18
F0.5
sg19
I45
sg20
g0
(g21
g22
(dp846
I00
I40
sI01
I5
stp847
Rp848
(dp849
g19
I45
sg27
Nsg28
Nsg29
Nsbsg30
I3
sg31
F46.5
sbs(g9
S'tri:(prague,stock,exchange)>0'
p850
tp851
g0
(g14
g2
Ntp852
Rp853
(dp854
g18
F0.5
sg19
I45
sg20
g0
(g21
g22
(dp855
I00
I28
sI01
I17
stp856
Rp857
(dp858
g19
I45
sg27
Nsg28
Nsg29
Nsbsg30
I3
sg31
F46.5
sbs(g9
S"skip:(the,.,'s)>0"
p859
tp860
g0
(g14
g2
Ntp861
Rp862
(dp863
g18
F0.5
sg19
I45
sg20
g0
(g21
g22
(dp864
I00
I42
sI01
I3
stp865
Rp866
(dp867
g19
I45
sg27
Nsg28
Nsg29
Nsbsg30
I3
sg31
F46.5
sbs(g9
S'wrd:not>0'
p868
tp869
g0
(g14
g2
Ntp870
Rp871
(dp872
g18
F0.5
sg19
I45
sg20
g0
(g21
g22
(dp873
I00
I14
sI01
I31
stp874
Rp875
(dp876
g19
I45
sg27
Nsg28
Nsg29
Nsbsg30
I3
sg31
F46.5
sbs(g8
S'bi:(,,which)>0'
p877
tp878
g0
(g14
g2
Ntp879
Rp880
(dp881
g18
F0.5
sg19
I45
sg20
g0
(g21
g22
(dp882
I00
I21
sI01
I24
stp883
Rp884
(dp885
g19
I45
sg27
Nsg28
Nsg29
Nsbsg30
I3
sg31
F46.5
sbs(g9
S'skip:(.,,,the)>0'
p886
tp887
g0
(g14
g2
Ntp888
Rp889
(dp890
g18
F0.5
sg19
I45
sg20
g0
(g21
g22
(dp891
I00
I44
sI01
I1
stp892
Rp893
(dp894
g19
I45
sg27
Nsg28
Nsg29
Nsbsg30
I3
sg31
F46.5
sbs(g8
S'bi:(to,the)>0'
p895
tp896
g0
(g14
g2
Ntp897
Rp898
(dp899
g18
F0.5
sg19
I45
sg20
g0
(g21
g22
(dp900
I00
I20
sI01
I25
stp901
Rp902
(dp903
g19
I45
sg27
Nsg28
Nsg29
Nsbsg30
I3
sg31
F46.5
sbs(g9
S'bi:(that,the)>0'
p904
tp905
g0
(g14
g2
Ntp906
Rp907
(dp908
g18
F0.5
sg19
I45
sg20
g0
(g21
g22
(dp909
I00
I27
sI01
I18
stp910
Rp911
(dp912
g19
I45
sg27
Nsg28
Nsg29
Nsbsg30
I3
sg31
F46.5
sbs(g9
S'wrd:in>0'
p913
tp914
g0
(g14
g2
Ntp915
Rp916
(dp917
g18
F0.5
sg19
I45
sg20
g0
(g21
g22
(dp918
I01
I45
stp919
Rp920
(dp921
g19
I45
sg27
Nsg28
Nsg29
Nsbsg30
I2
sg31
F46.0
sbs(g9
g552
tp922
g0
(g14
g2
Ntp923
Rp924
(dp925
g18
F0.5
sg19
I45
sg20
g0
(g21
g22
(dp926
I00
I21
sI01
I24
stp927
Rp928
(dp929
g19
I45
sg27
Nsg28
Nsg29
Nsbsg30
I3
sg31
F46.5
sbs(g9
S'bi:(the,first)>0'
p930
tp931
g0
(g14
g2
Ntp932
Rp933
(dp934
g18
F0.5
sg19
I45
sg20
g0
(g21
g22
(dp935
I00
I13
sI01
I32
stp936
Rp937
(dp938
g19
I45
sg27
Nsg28
Nsg29
Nsbsg30
I3
sg31
F46.5
sbs(g9
g41
tp939
g0
(g14
g2
Ntp940
Rp941
(dp942
g18
F0.5
sg19
I45
sg20
g0
(g21
g22
(dp943
I00
I39
sI01
I6
stp944
Rp945
(dp946
g19
I45
sg27
Nsg28
Nsg29
Nsbsg30
I3
sg31
F46.5
sbs(g9
S'wrd:,>0'
p947
tp948
g0
(g14
g2
Ntp949
Rp950
(dp951
g18
F0.5
sg19
I45
sg20
g0
(g21
g22
(dp952
I00
I45
stp953
Rp954
(dp955
g19
I45
sg27
Nsg28
Nsg29
Nsbsg30
I2
sg31
F46.0
sbs(g9
S'tri:(the,supreme,court)>0'
p956
tp957
g0
(g14
g2
Ntp958
Rp959
(dp960
g18
F0.5
sg19
I45
sg20
g0
(g21
g22
(dp961
I00
I45
stp962
Rp963
(dp964
g19
I45
sg27
Nsg28
Nsg29
Nsbsg30
I3
sg31
F46.5
sbs(g9
S'tri:(u,.s,.)>0'
p965
tp966
g0
(g14
g2
Ntp967
Rp968
(dp969
g18
F0.5
sg19
I45
sg20
g0
(g21
g22
(dp970
I00
I43
sI01
I2
stp971
Rp972
(dp973
g19
I45
sg27
Nsg28
Nsg29
Nsbsg30
I3
sg31
F46.5
sbs(g9
S'tri:(,,president,of)>0'
p974
tp975
g0
(g14
g2
Ntp976
Rp977
(dp978
g18
F0.5
sg19
I45
sg20
g0
(g21
g22
(dp979
I00
I45
stp980
Rp981
(dp982
g19
I45
sg27
Nsg28
Nsg29
Nsbsg30
I3
sg31
F46.5
sbs(g9
S'skip:(.,ranked,the)>0'
p983
tp984
g0
(g14
g2
Ntp985
Rp986
(dp987
g18
F0.5
sg19
I45
sg20
g0
(g21
g22
(dp988
I00
I38
sI01
I7
stp989
Rp990
(dp991
g19
I45
sg27
Nsg28
Nsg29
Nsbsg30
I3
sg31
F46.5
sbs(g8
S'tri:(billion,crowns,,)>0'
p992
tp993
g0
(g14
g2
Ntp994
Rp995
(dp996
g18
F0.5
sg19
I45
sg20
g0
(g21
g22
(dp997
I00
I45
stp998
Rp999
(dp1000
g19
I45
sg27
Nsg28
Nsg29
Nsbsg30
I3
sg31
F46.5
sbs(g8
g622
tp1001
g0
(g14
g2
Ntp1002
Rp1003
(dp1004
g18
F0.5
sg19
I45
sg20
g0
(g21
g22
(dp1005
I00
I44
sI01
I1
stp1006
Rp1007
(dp1008
g19
I45
sg27
Nsg28
Nsg29
Nsbsg30
I3
sg31
F46.5
sbs(g8
g221
tp1009
g0
(g14
g2
Ntp1010
Rp1011
(dp1012
g18
F0.5
sg19
I45
sg20
g0
(g21
g22
(dp1013
I00
I8
sI01
I37
stp1014
Rp1015
(dp1016
g19
I45
sg27
Nsg28
Nsg29
Nsbsg30
I3
sg31
F46.5
sbs(g8
S'skip:(,,the,of)>0'
p1017
tp1018
g0
(g14
g2
Ntp1019
Rp1020
(dp1021
g18
F0.5
sg19
I45
sg20
g0
(g21
g22
(dp1022
I00
I44
sI01
I1
stp1023
Rp1024
(dp1025
g19
I45
sg27
Nsg28
Nsg29
Nsbsg30
I3
sg31
F46.5
sbs(g9
S'bi:(,,but)>0'
p1026
tp1027
g0
(g14
g2
Ntp1028
Rp1029
(dp1030
g18
F0.5
sg19
I45
sg20
g0
(g21
g22
(dp1031
I00
I15
sI01
I30
stp1032
Rp1033
(dp1034
g19
I45
sg27
Nsg28
Nsg29
Nsbsg30
I3
sg31
F46.5
sbs(g8
S'tri:(prime,minister,vaclav)>0'
p1035
tp1036
g0
(g14
g2
Ntp1037
Rp1038
(dp1039
g18
F0.5
sg19
I45
sg20
g0
(g21
g22
(dp1040
I00
I45
stp1041
Rp1042
(dp1043
g19
I45
sg27
Nsg28
Nsg29
Nsbsg30
I3
sg31
F46.5
sbs(g8
g284
tp1044
g0
(g14
g2
Ntp1045
Rp1046
(dp1047
g18
F0.5
sg19
I45
sg20
g0
(g21
g22
(dp1048
I00
I34
sI01
I11
stp1049
Rp1050
(dp1051
g19
I45
sg27
Nsg28
Nsg29
Nsbsg30
I3
sg31
F46.5
sbs(g8
g525
tp1052
g0
(g14
g2
Ntp1053
Rp1054
(dp1055
g18
F0.5
sg19
I45
sg20
g0
(g21
g22
(dp1056
I00
I45
stp1057
Rp1058
(dp1059
g19
I45
sg27
Nsg28
Nsg29
Nsbsg30
I3
sg31
F46.5
sbs(g9
S'bi:(in,the)>0'
p1060
tp1061
g0
(g14
g2
Ntp1062
Rp1063
(dp1064
g18
F0.5
sg19
I45
sg20
g0
(g21
g22
(dp1065
I00
I1
sI01
I44
stp1066
Rp1067
(dp1068
g19
I45
sg27
Nsg28
Nsg29
Nsbsg30
I3
sg31
F46.5
sbs(g9
S'tri:(the,prague,stock)>0'
p1069
tp1070
g0
(g14
g2
Ntp1071
Rp1072
(dp1073
g18
F0.5
sg19
I45
sg20
g0
(g21
g22
(dp1074
I00
I28
sI01
I17
stp1075
Rp1076
(dp1077
g19
I45
sg27
Nsg28
Nsg29
Nsbsg30
I3
sg31
F46.5
sbs(g8
S"skip:('',,,of)>0"
p1078
tp1079
g0
(g14
g2
Ntp1080
Rp1081
(dp1082
g18
F0.5
sg19
I45
sg20
g0
(g21
g22
(dp1083
I00
I39
sI01
I6
stp1084
Rp1085
(dp1086
g19
I45
sg27
Nsg28
Nsg29
Nsbsg30
I3
sg31
F46.5
sbs(g8
g983
tp1087
g0
(g14
g2
Ntp1088
Rp1089
(dp1090
g18
F0.5
sg19
I45
sg20
g0
(g21
g22
(dp1091
I00
I45
stp1092
Rp1093
(dp1094
g19
I45
sg27
Nsg28
Nsg29
Nsbsg30
I3
sg31
F46.5
sbs(g9
g345
tp1095
g0
(g14
g2
Ntp1096
Rp1097
(dp1098
g18
F0.5
sg19
I45
sg20
g0
(g21
g22
(dp1099
I00
I11
sI01
I34
stp1100
Rp1101
(dp1102
g19
I45
sg27
Nsg28
Nsg29
Nsbsg30
I3
sg31
F46.5
sbs(g9
g328
tp1103
g0
(g14
g2
Ntp1104
Rp1105
(dp1106
g18
F0.5
sg19
I45
sg20
g0
(g21
g22
(dp1107
I00
I45
stp1108
Rp1109
(dp1110
g19
I45
sg27
Nsg28
Nsg29
Nsbsg30
I3
sg31
F46.5
sbs(g8
S'tri:(in,the,world)>0'
p1111
tp1112
g0
(g14
g2
Ntp1113
Rp1114
(dp1115
g18
F0.5
sg19
I45
sg20
g0
(g21
g22
(dp1116
I00
I45
stp1117
Rp1118
(dp1119
g19
I45
sg27
Nsg28
Nsg29
Nsbsg30
I3
sg31
F46.5
sbs(g8
g735
tp1120
g0
(g14
g2
Ntp1121
Rp1122
(dp1123
g18
F0.5
sg19
I45
sg20
g0
(g21
g22
(dp1124
I00
I6
sI01
I39
stp1125
Rp1126
(dp1127
g19
I45
sg27
Nsg28
Nsg29
Nsbsg30
I3
sg31
F46.5
sbs(g9
S'wrd:percent>0'
p1128
tp1129
g0
(g14
g2
Ntp1130
Rp1131
(dp1132
g18
F0.5
sg19
I45
sg20
g0
(g21
g22
(dp1133
I00
I19
sI01
I26
stp1134
Rp1135
(dp1136
g19
I45
sg27
Nsg28
Nsg29
Nsbsg30
I3
sg31
F46.5
sbs(g8
S'skip:(the,and,the)>0'
p1137
tp1138
g0
(g14
g2
Ntp1139
Rp1140
(dp1141
g18
F0.5
sg19
I45
sg20
g0
(g21
g22
(dp1142
I00
I38
sI01
I7
stp1143
Rp1144
(dp1145
g19
I45
sg27
Nsg28
Nsg29
Nsbsg30
I3
sg31
F46.5
sbs(g8
S'bi:(.,but)>0'
p1146
tp1147
g0
(g14
g2
Ntp1148
Rp1149
(dp1150
g18
F0.5
sg19
I45
sg20
g0
(g21
g22
(dp1151
I00
I15
sI01
I30
stp1152
Rp1153
(dp1154
g19
I45
sg27
Nsg28
Nsg29
Nsbsg30
I3
sg31
F46.5
sbs(g8
g886
tp1155
g0
(g14
g2
Ntp1156
Rp1157
(dp1158
g18
F0.5
sg19
I45
sg20
g0
(g21
g22
(dp1159
I00
I39
sI01
I6
stp1160
Rp1161
(dp1162
g19
I45
sg27
Nsg28
Nsg29
Nsbsg30
I3
sg31
F46.5
sbs(g8
g780
tp1163
g0
(g14
g2
Ntp1164
Rp1165
(dp1166
g18
F0.5
sg19
I45
sg20
g0
(g21
g22
(dp1167
I00
I45
stp1168
Rp1169
(dp1170
g19
I45
sg27
Nsg28
Nsg29
Nsbsg30
I3
sg31
F46.5
sbs(g9
S'wrd:on>0'
p1171
tp1172
g0
(g14
g2
Ntp1173
Rp1174
(dp1175
g18
F0.5
sg19
I45
sg20
g0
(g21
g22
(dp1176
I01
I45
stp1177
Rp1178
(dp1179
g19
I45
sg27
Nsg28
Nsg29
Nsbsg30
I2
sg31
F46.0
sbs(g8
S'tri:(the,u,.s)>0'
p1180
tp1181
g0
(g14
g2
Ntp1182
Rp1183
(dp1184
g18
F0.5
sg19
I45
sg20
g0
(g21
g22
(dp1185
I00
I35
sI01
I10
stp1186
Rp1187
(dp1188
g19
I45
sg27
Nsg28
Nsg29
Nsbsg30
I3
sg31
F46.5
sbs(g9
g753
tp1189
g0
(g14
g2
Ntp1190
Rp1191
(dp1192
g18
F0.5
sg19
I45
sg20
g0
(g21
g22
(dp1193
I00
I34
sI01
I11
stp1194
Rp1195
(dp1196
g19
I45
sg27
Nsg28
Nsg29
Nsbsg30
I3
sg31
F46.5
sbs(g8
g913
tp1197
g0
(g14
g2
Ntp1198
Rp1199
(dp1200
g18
F0.5
sg19
I45
sg20
g0
(g21
g22
(dp1201
I01
I45
stp1202
Rp1203
(dp1204
g19
I45
sg27
Nsg28
Nsg29
Nsbsg30
I2
sg31
F46.0
sbs(g9
g823
tp1205
g0
(g14
g2
Ntp1206
Rp1207
(dp1208
g18
F0.5
sg19
I45
sg20
g0
(g21
g22
(dp1209
I00
I40
sI01
I5
stp1210
Rp1211
(dp1212
g19
I45
sg27
Nsg28
Nsg29
Nsbsg30
I3
sg31
F46.5
sbs(g8
g113
tp1213
g0
(g14
g2
Ntp1214
Rp1215
(dp1216
g18
F0.5
sg19
I45
sg20
g0
(g21
g22
(dp1217
I00
I45
stp1218
Rp1219
(dp1220
g19
I45
sg27
Nsg28
Nsg29
Nsbsg30
I3
sg31
F46.5
sbs(g9
S'bi:(for,the)>0'
p1221
tp1222
g0
(g14
g2
Ntp1223
Rp1224
(dp1225
g18
F0.5
sg19
I45
sg20
g0
(g21
g22
(dp1226
I00
I9
sI01
I36
stp1227
Rp1228
(dp1229
g19
I45
sg27
Nsg28
Nsg29
Nsbsg30
I3
sg31
F46.5
sbs(g9
S'skip:(,,and,,)>0'
p1230
tp1231
g0
(g14
g2
Ntp1232
Rp1233
(dp1234
g18
F0.5
sg19
I45
sg20
g0
(g21
g22
(dp1235
I00
I45
stp1236
Rp1237
(dp1238
g19
I45
sg27
Nsg28
Nsg29
Nsbsg30
I3
sg31
F46.5
sbs(g8
S'skip:(the,the,,)>0'
p1239
tp1240
g0
(g14
g2
Ntp1241
Rp1242
(dp1243
g18
F0.5
sg19
I45
sg20
g0
(g21
g22
(dp1244
I00
I43
sI01
I2
stp1245
Rp1246
(dp1247
g19
I45
sg27
Nsg28
Nsg29
Nsbsg30
I3
sg31
F46.5
sbs(g9
g895
tp1248
g0
(g14
g2
Ntp1249
Rp1250
(dp1251
g18
F0.5
sg19
I45
sg20
g0
(g21
g22
(dp1252
I00
I12
sI01
I33
stp1253
Rp1254
(dp1255
g19
I45
sg27
Nsg28
Nsg29
Nsbsg30
I3
sg31
F46.5
sbs(g8
S"tri:(.,'',i)>0"
p1256
tp1257
g0
(g14
g2
Ntp1258
Rp1259
(dp1260
g18
F0.5
sg19
I45
sg20
g0
(g21
g22
(dp1261
I00
I39
sI01
I6
stp1262
Rp1263
(dp1264
g19
I45
sg27
Nsg28
Nsg29
Nsbsg30
I3
sg31
F46.5
sbs(g9
S'bi:(said,.)>0'
p1265
tp1266
g0
(g14
g2
Ntp1267
Rp1268
(dp1269
g18
F0.5
sg19
I45
sg20
g0
(g21
g22
(dp1270
I00
I28
sI01
I17
stp1271
Rp1272
(dp1273
g19
I45
sg27
Nsg28
Nsg29
Nsbsg30
I3
sg31
F46.5
sbs(g8
g771
tp1274
g0
(g14
g2
Ntp1275
Rp1276
(dp1277
g18
F0.5
sg19
I45
sg20
g0
(g21
g22
(dp1278
I00
I38
sI01
I7
stp1279
Rp1280
(dp1281
g19
I45
sg27
Nsg28
Nsg29
Nsbsg30
I3
sg31
F46.5
sbs(g9
g877
tp1282
g0
(g14
g2
Ntp1283
Rp1284
(dp1285
g18
F0.5
sg19
I45
sg20
g0
(g21
g22
(dp1286
I00
I27
sI01
I18
stp1287
Rp1288
(dp1289
g19
I45
sg27
Nsg28
Nsg29
Nsbsg30
I3
sg31
F46.5
sbs(g9
S"bi:('',the)>0"
p1290
tp1291
g0
(g14
g2
Ntp1292
Rp1293
(dp1294
g18
F0.5
sg19
I45
sg20
g0
(g21
g22
(dp1295
I00
I28
sI01
I17
stp1296
Rp1297
(dp1298
g19
I45
sg27
Nsg28
Nsg29
Nsbsg30
I3
sg31
F46.5
sbs(g9
g390
tp1299
g0
(g14
g2
Ntp1300
Rp1301
(dp1302
g18
F0.5
sg19
I45
sg20
g0
(g21
g22
(dp1303
I00
I24
sI01
I21
stp1304
Rp1305
(dp1306
g19
I45
sg27
Nsg28
Nsg29
Nsbsg30
I3
sg31
F46.5
sbs(g9
S'tri:(&,amp,;)>0'
p1307
tp1308
g0
(g14
g2
Ntp1309
Rp1310
(dp1311
g18
F0.5
sg19
I45
sg20
g0
(g21
g22
(dp1312
I00
I45
stp1313
Rp1314
(dp1315
g19
I45
sg27
Nsg28
Nsg29
Nsbsg30
I3
sg31
F46.5
sbs(g8
S'wrd:and>0'
p1316
tp1317
g0
(g14
g2
Ntp1318
Rp1319
(dp1320
g18
F0.5
sg19
I45
sg20
g0
(g21
g22
(dp1321
I00
I2
sI01
I43
stp1322
Rp1323
(dp1324
g19
I45
sg27
Nsg28
Nsg29
Nsbsg30
I3
sg31
F46.5
sbs(g8
S'skip:((,,,,)>0'
p1325
tp1326
g0
(g14
g2
Ntp1327
Rp1328
(dp1329
g18
F0.5
sg19
I45
sg20
g0
(g21
g22
(dp1330
I00
I45
stp1331
Rp1332
(dp1333
g19
I45
sg27
Nsg28
Nsg29
Nsbsg30
I3
sg31
F46.5
sbs(g8
g122
tp1334
g0
(g14
g2
Ntp1335
Rp1336
(dp1337
g18
F0.5
sg19
I45
sg20
g0
(g21
g22
(dp1338
I00
I20
sI01
I25
stp1339
Rp1340
(dp1341
g19
I45
sg27
Nsg28
Nsg29
Nsbsg30
I3
sg31
F46.5
sbs(g9
S'bi:(at,the)>0'
p1342
tp1343
g0
(g14
g2
Ntp1344
Rp1345
(dp1346
g18
F0.5
sg19
I45
sg20
g0
(g21
g22
(dp1347
I00
I21
sI01
I24
stp1348
Rp1349
(dp1350
g19
I45
sg27
Nsg28
Nsg29
Nsbsg30
I3
sg31
F46.5
sbs(g8
g956
tp1351
g0
(g14
g2
Ntp1352
Rp1353
(dp1354
g18
F0.5
sg19
I45
sg20
g0
(g21
g22
(dp1355
I00
I37
sI01
I8
stp1356
Rp1357
(dp1358
g19
I45
sg27
Nsg28
Nsg29
Nsbsg30
I3
sg31
F46.5
sbs(g9
g104
tp1359
g0
(g14
g2
Ntp1360
Rp1361
(dp1362
g18
F0.5
sg19
I45
sg20
g0
(g21
g22
(dp1363
I00
I38
sI01
I7
stp1364
Rp1365
(dp1366
g19
I45
sg27
Nsg28
Nsg29
Nsbsg30
I3
sg31
F46.5
sbs(g9
S'skip:(at,;,.)>0'
p1367
tp1368
g0
(g14
g2
Ntp1369
Rp1370
(dp1371
g18
F0.5
sg19
I45
sg20
g0
(g21
g22
(dp1372
I00
I45
stp1373
Rp1374
(dp1375
g19
I45
sg27
Nsg28
Nsg29
Nsbsg30
I3
sg31
F46.5
sbs(g9
S'bi:(.s,.)>0'
p1376
tp1377
g0
(g14
g2
Ntp1378
Rp1379
(dp1380
g18
F0.5
sg19
I45
sg20
g0
(g21
g22
(dp1381
I00
I40
sI01
I5
stp1382
Rp1383
(dp1384
g19
I45
sg27
Nsg28
Nsg29
Nsbsg30
I3
sg31
F46.5
sbs(g9
S'bi:(of,the)>0'
p1385
tp1386
g0
(g14
g2
Ntp1387
Rp1388
(dp1389
g18
F0.5
sg19
I45
sg20
g0
(g21
g22
(dp1390
I00
I2
sI01
I43
stp1391
Rp1392
(dp1393
g19
I45
sg27
Nsg28
Nsg29
Nsbsg30
I3
sg31
F46.5
sbs(g9
S"tri:(.,'',it)>0"
p1394
tp1395
g0
(g14
g2
Ntp1396
Rp1397
(dp1398
g18
F0.5
sg19
I45
sg20
g0
(g21
g22
(dp1399
I00
I36
sI01
I9
stp1400
Rp1401
(dp1402
g19
I45
sg27
Nsg28
Nsg29
Nsbsg30
I3
sg31
F46.5
sbs(g8
S'skip:(the,the,of)>0'
p1403
tp1404
g0
(g14
g2
Ntp1405
Rp1406
(dp1407
g18
F0.5
sg19
I45
sg20
g0
(g21
g22
(dp1408
I00
I42
sI01
I3
stp1409
Rp1410
(dp1411
g19
I45
sg27
Nsg28
Nsg29
Nsbsg30
I3
sg31
F46.5
sbs(g8
S'skip:(,,said,the)>0'
p1412
tp1413
g0
(g14
g2
Ntp1414
Rp1415
(dp1416
g18
F0.5
sg19
I45
sg20
g0
(g21
g22
(dp1417
I00
I40
sI01
I5
stp1418
Rp1419
(dp1420
g19
I45
sg27
Nsg28
Nsg29
Nsbsg30
I3
sg31
F46.5
sbs(g8
g185
tp1421
g0
(g14
g2
Ntp1422
Rp1423
(dp1424
g18
F0.5
sg19
I45
sg20
g0
(g21
g22
(dp1425
I00
I45
stp1426
Rp1427
(dp1428
g19
I45
sg27
Nsg28
Nsg29
Nsbsg30
I3
sg31
F46.5
sbs(g8
S'skip:(the,the,at)>0'
p1429
tp1430
g0
(g14
g2
Ntp1431
Rp1432
(dp1433
g18
F0.5
sg19
I45
sg20
g0
(g21
g22
(dp1434
I00
I45
stp1435
Rp1436
(dp1437
g19
I45
sg27
Nsg28
Nsg29
Nsbsg30
I3
sg31
F46.5
sbs(g8
g507
tp1438
g0
(g14
g2
Ntp1439
Rp1440
(dp1441
g18
F0.5
sg19
I45
sg20
g0
(g21
g22
(dp1442
I00
I1
sI01
I44
stp1443
Rp1444
(dp1445
g19
I45
sg27
Nsg28
Nsg29
Nsbsg30
I3
sg31
F46.5
sbs(g8
g32
tp1446
g0
(g14
g2
Ntp1447
Rp1448
(dp1449
g18
F0.5
sg19
I45
sg20
g0
(g21
g22
(dp1450
I00
I1
sI01
I44
stp1451
Rp1452
(dp1453
g19
I45
sg27
Nsg28
Nsg29
Nsbsg30
I3
sg31
F46.5
sbs(g8
S'bi:(u,.s)>0'
p1454
tp1455
g0
(g14
g2
Ntp1456
Rp1457
(dp1458
g18
F0.5
sg19
I45
sg20
g0
(g21
g22
(dp1459
I00
I24
sI01
I21
stp1460
Rp1461
(dp1462
g19
I45
sg27
Nsg28
Nsg29
Nsbsg30
I3
sg31
F46.5
sbs(g8
g1394
tp1463
g0
(g14
g2
Ntp1464
Rp1465
(dp1466
g18
F0.5
sg19
I45
sg20
g0
(g21
g22
(dp1467
I00
I35
sI01
I10
stp1468
Rp1469
(dp1470
g19
I45
sg27
Nsg28
Nsg29
Nsbsg30
I3
sg31
F46.5
sbs(g9
S'tri:(minister,vaclav,klaus)>0'
p1471
tp1472
g0
(g14
g2
Ntp1473
Rp1474
(dp1475
g18
F0.5
sg19
I45
sg20
g0
(g21
g22
(dp1476
I00
I32
sI01
I13
stp1477
Rp1478
(dp1479
g19
I45
sg27
Nsg28
Nsg29
Nsbsg30
I3
sg31
F46.5
sbs(g9
g744
tp1480
g0
(g14
g2
Ntp1481
Rp1482
(dp1483
g18
F0.5
sg19
I45
sg20
g0
(g21
g22
(dp1484
I00
I42
sI01
I3
stp1485
Rp1486
(dp1487
g19
I45
sg27
Nsg28
Nsg29
Nsbsg30
I3
sg31
F46.5
sbs(g9
g613
tp1488
g0
(g14
g2
Ntp1489
Rp1490
(dp1491
g18
F0.5
sg19
I45
sg20
g0
(g21
g22
(dp1492
I00
I40
sI01
I5
stp1493
Rp1494
(dp1495
g19
I45
sg27
Nsg28
Nsg29
Nsbsg30
I3
sg31
F46.5
sbs(g8
g516
tp1496
g0
(g14
g2
Ntp1497
Rp1498
(dp1499
g18
F0.5
sg19
I45
sg20
g0
(g21
g22
(dp1500
I00
I45
stp1501
Rp1502
(dp1503
g19
I45
sg27
Nsg28
Nsg29
Nsbsg30
I3
sg31
F46.5
sbs(g8
g1265
tp1504
g0
(g14
g2
Ntp1505
Rp1506
(dp1507
g18
F0.5
sg19
I45
sg20
g0
(g21
g22
(dp1508
I00
I6
sI01
I39
stp1509
Rp1510
(dp1511
g19
I45
sg27
Nsg28
Nsg29
Nsbsg30
I3
sg31
F46.5
sbs(g9
S'wrd:by>0'
p1512
tp1513
g0
(g14
g2
Ntp1514
Rp1515
(dp1516
g18
F0.5
sg19
I45
sg20
g0
(g21
g22
(dp1517
I00
I10
sI01
I35
stp1518
Rp1519
(dp1520
g19
I45
sg27
Nsg28
Nsg29
Nsbsg30
I3
sg31
F46.5
sbs(g8
S'wrd:was>0'
p1521
tp1522
g0
(g14
g2
Ntp1523
Rp1524
(dp1525
g18
F0.5
sg19
I45
sg20
g0
(g21
g22
(dp1526
I00
I15
sI01
I30
stp1527
Rp1528
(dp1529
g19
I45
sg27
Nsg28
Nsg29
Nsbsg30
I3
sg31
F46.5
sbs(g9
g1412
tp1530
g0
(g14
g2
Ntp1531
Rp1532
(dp1533
g18
F0.5
sg19
I45
sg20
g0
(g21
g22
(dp1534
I00
I44
sI01
I1
stp1535
Rp1536
(dp1537
g19
I45
sg27
Nsg28
Nsg29
Nsbsg30
I3
sg31
F46.5
sbs(g9
g789
tp1538
g0
(g14
g2
Ntp1539
Rp1540
(dp1541
g18
F0.5
sg19
I45
sg20
g0
(g21
g22
(dp1542
I00
I45
stp1543
Rp1544
(dp1545
g19
I45
sg27
Nsg28
Nsg29
Nsbsg30
I3
sg31
F46.5
sbs(g8
g666
tp1546
g0
(g14
g2
Ntp1547
Rp1548
(dp1549
g18
F0.5
sg19
I45
sg20
g0
(g21
g22
(dp1550
I00
I31
sI01
I14
stp1551
Rp1552
(dp1553
g19
I45
sg27
Nsg28
Nsg29
Nsbsg30
I3
sg31
F46.5
sbs(g8
g1471
tp1554
g0
(g14
g2
Ntp1555
Rp1556
(dp1557
g18
F0.5
sg19
I45
sg20
g0
(g21
g22
(dp1558
I00
I45
stp1559
Rp1560
(dp1561
g19
I45
sg27
Nsg28
Nsg29
Nsbsg30
I3
sg31
F46.5
sbs(g8
S'skip:(a,the,.)>0'
p1562
tp1563
g0
(g14
g2
Ntp1564
Rp1565
(dp1566
g18
F0.5
sg19
I45
sg20
g0
(g21
g22
(dp1567
I00
I37
sI01
I8
stp1568
Rp1569
(dp1570
g19
I45
sg27
Nsg28
Nsg29
Nsbsg30
I3
sg31
F46.5
sbs(g9
S'tri:(billion,crowns,.)>0'
p1571
tp1572
g0
(g14
g2
Ntp1573
Rp1574
(dp1575
g18
F0.5
sg19
I45
sg20
g0
(g21
g22
(dp1576
I00
I36
sI01
I9
stp1577
Rp1578
(dp1579
g19
I45
sg27
Nsg28
Nsg29
Nsbsg30
I3
sg31
F46.5
sbs(g8
g140
tp1580
g0
(g14
g2
Ntp1581
Rp1582
(dp1583
g18
F0.5
sg19
I45
sg20
g0
(g21
g22
(dp1584
I00
I41
sI01
I4
stp1585
Rp1586
(dp1587
g19
I45
sg27
Nsg28
Nsg29
Nsbsg30
I3
sg31
F46.5
sbs(g9
g726
tp1588
g0
(g14
g2
Ntp1589
Rp1590
(dp1591
g18
F0.5
sg19
I45
sg20
g0
(g21
g22
(dp1592
I00
I33
sI01
I12
stp1593
Rp1594
(dp1595
g19
I45
sg27
Nsg28
Nsg29
Nsbsg30
I3
sg31
F46.5
sbs(g8
S'skip:(at,of,.)>0'
p1596
tp1597
g0
(g14
g2
Ntp1598
Rp1599
(dp1600
g18
F0.5
sg19
I45
sg20
g0
(g21
g22
(dp1601
I00
I43
sI01
I2
stp1602
Rp1603
(dp1604
g19
I45
sg27
Nsg28
Nsg29
Nsbsg30
I3
sg31
F46.5
sbs(g9
g1325
tp1605
g0
(g14
g2
Ntp1606
Rp1607
(dp1608
g18
F0.5
sg19
I45
sg20
g0
(g21
g22
(dp1609
I00
I43
sI01
I2
stp1610
Rp1611
(dp1612
g19
I45
sg27
Nsg28
Nsg29
Nsbsg30
I3
sg31
F46.5
sbs(g9
g1180
tp1613
g0
(g14
g2
Ntp1614
Rp1615
(dp1616
g18
F0.5
sg19
I45
sg20
g0
(g21
g22
(dp1617
I00
I43
sI01
I2
stp1618
Rp1619
(dp1620
g19
I45
sg27
Nsg28
Nsg29
Nsbsg30
I3
sg31
F46.5
sbs(g8
g319
tp1621
g0
(g14
g2
Ntp1622
Rp1623
(dp1624
g18
F0.5
sg19
I45
sg20
g0
(g21
g22
(dp1625
I00
I45
stp1626
Rp1627
(dp1628
g19
I45
sg27
Nsg28
Nsg29
Nsbsg30
I3
sg31
F46.5
sbs(g9
S'wrd:with>0'
p1629
tp1630
g0
(g14
g2
Ntp1631
Rp1632
(dp1633
g18
F0.5
sg19
I45
sg20
g0
(g21
g22
(dp1634
I00
I2
sI01
I43
stp1635
Rp1636
(dp1637
g19
I45
sg27
Nsg28
Nsg29
Nsbsg30
I3
sg31
F46.5
sbs(g8
S'skip:(the,,,a)>0'
p1638
tp1639
g0
(g14
g2
Ntp1640
Rp1641
(dp1642
g18
F0.5
sg19
I45
sg20
g0
(g21
g22
(dp1643
I00
I38
sI01
I7
stp1644
Rp1645
(dp1646
g19
I45
sg27
Nsg28
Nsg29
Nsbsg30
I3
sg31
F46.5
sbs(g8
g399
tp1647
g0
(g14
g2
Ntp1648
Rp1649
(dp1650
g18
F0.5
sg19
I45
sg20
g0
(g21
g22
(dp1651
I00
I29
sI01
I16
stp1652
Rp1653
(dp1654
g19
I45
sg27
Nsg28
Nsg29
Nsbsg30
I3
sg31
F46.5
sbs(g8
S'skip:(the,exchange,))>0'
p1655
tp1656
g0
(g14
g2
Ntp1657
Rp1658
(dp1659
g18
F0.5
sg19
I45
sg20
g0
(g21
g22
(dp1660
I00
I45
stp1661
Rp1662
(dp1663
g19
I45
sg27
Nsg28
Nsg29
Nsbsg30
I3
sg31
F46.5
sbs(g9
S'wrd:of>0'
p1664
tp1665
g0
(g14
g2
Ntp1666
Rp1667
(dp1668
g18
F0.5
sg19
I45
sg20
g0
(g21
g22
(dp1669
I01
I45
stp1670
Rp1671
(dp1672
g19
I45
sg27
Nsg28
Nsg29
Nsbsg30
I2
sg31
F46.0
sbs(g9
g408
tp1673
g0
(g14
g2
Ntp1674
Rp1675
(dp1676
g18
F0.5
sg19
I45
sg20
g0
(g21
g22
(dp1677
I00
I32
sI01
I13
stp1678
Rp1679
(dp1680
g19
I45
sg27
Nsg28
Nsg29
Nsbsg30
I3
sg31
F46.5
sbs(g8
g1385
tp1681
g0
(g14
g2
Ntp1682
Rp1683
(dp1684
g18
F0.5
sg19
I45
sg20
g0
(g21
g22
(dp1685
I00
I1
sI01
I44
stp1686
Rp1687
(dp1688
g19
I45
sg27
Nsg28
Nsg29
Nsbsg30
I3
sg31
F46.5
sbs(g8
g266
tp1689
g0
(g14
g2
Ntp1690
Rp1691
(dp1692
g18
F0.5
sg19
I45
sg20
g0
(g21
g22
(dp1693
I01
I45
stp1694
Rp1695
(dp1696
g19
I45
sg27
Nsg28
Nsg29
Nsbsg30
I2
sg31
F46.0
sbs(g9
g1429
tp1697
g0
(g14
g2
Ntp1698
Rp1699
(dp1700
g18
F0.5
sg19
I45
sg20
g0
(g21
g22
(dp1701
I00
I39
sI01
I6
stp1702
Rp1703
(dp1704
g19
I45
sg27
Nsg28
Nsg29
Nsbsg30
I3
sg31
F46.5
sbs(g8
S'skip:(a,for,,)>0'
p1705
tp1706
g0
(g14
g2
Ntp1707
Rp1708
(dp1709
g18
F0.5
sg19
I45
sg20
g0
(g21
g22
(dp1710
I00
I45
stp1711
Rp1712
(dp1713
g19
I45
sg27
Nsg28
Nsg29
Nsbsg30
I3
sg31
F46.5
sbs(g8
S"bi:('',he)>0"
p1714
tp1715
g0
(g14
g2
Ntp1716
Rp1717
(dp1718
g18
F0.5
sg19
I45
sg20
g0
(g21
g22
(dp1719
I00
I27
sI01
I18
stp1720
Rp1721
(dp1722
g19
I45
sg27
Nsg28
Nsg29
Nsbsg30
I3
sg31
F46.5
sbs(g8
g965
tp1723
g0
(g14
g2
Ntp1724
Rp1725
(dp1726
g18
F0.5
sg19
I45
sg20
g0
(g21
g22
(dp1727
I00
I24
sI01
I21
stp1728
Rp1729
(dp1730
g19
I45
sg27
Nsg28
Nsg29
Nsbsg30
I3
sg31
F46.5
sbs(g8
S'bi:(the,second)>0'
p1731
tp1732
g0
(g14
g2
Ntp1733
Rp1734
(dp1735
g18
F0.5
sg19
I45
sg20
g0
(g21
g22
(dp1736
I00
I45
stp1737
Rp1738
(dp1739
g19
I45
sg27
Nsg28
Nsg29
Nsbsg30
I3
sg31
F46.5
sbs(g9
g498
tp1740
g0
(g14
g2
Ntp1741
Rp1742
(dp1743
g18
F0.5
sg19
I45
sg20
g0
(g21
g22
(dp1744
I00
I29
sI01
I16
stp1745
Rp1746
(dp1747
g19
I45
sg27
Nsg28
Nsg29
Nsbsg30
I3
sg31
F46.5
sbs(g9
S'tri:(the,first,round)>0'
p1748
tp1749
g0
(g14
g2
Ntp1750
Rp1751
(dp1752
g18
F0.5
sg19
I45
sg20
g0
(g21
g22
(dp1753
I00
I31
sI01
I14
stp1754
Rp1755
(dp1756
g19
I45
sg27
Nsg28
Nsg29
Nsbsg30
I3
sg31
F46.5
sbs(g9
g1316
tp1757
g0
(g14
g2
Ntp1758
Rp1759
(dp1760
g18
F0.5
sg19
I45
sg20
g0
(g21
g22
(dp1761
I01
I45
stp1762
Rp1763
(dp1764
g19
I45
sg27
Nsg28
Nsg29
Nsbsg30
I3
sg31
F46.5
sbs(g9
g471
tp1765
g0
(g14
g2
Ntp1766
Rp1767
(dp1768
g18
F0.5
sg19
I45
sg20
g0
(g21
g22
(dp1769
I00
I33
sI01
I12
stp1770
Rp1771
(dp1772
g19
I45
sg27
Nsg28
Nsg29
Nsbsg30
I3
sg31
F46.5
sbs(g8
g708
tp1773
g0
(g14
g2
Ntp1774
Rp1775
(dp1776
g18
F0.5
sg19
I45
sg20
g0
(g21
g22
(dp1777
I00
I45
stp1778
Rp1779
(dp1780
g19
I45
sg27
Nsg28
Nsg29
Nsbsg30
I2
sg31
F46.0
sbs(g8
g1512
tp1781
g0
(g14
g2
Ntp1782
Rp1783
(dp1784
g18
F0.5
sg19
I45
sg20
g0
(g21
g22
(dp1785
I00
I5
sI01
I40
stp1786
Rp1787
(dp1788
g19
I45
sg27
Nsg28
Nsg29
Nsbsg30
I3
sg31
F46.5
sbs(g9
g1562
tp1789
g0
(g14
g2
Ntp1790
Rp1791
(dp1792
g18
F0.5
sg19
I45
sg20
g0
(g21
g22
(dp1793
I00
I44
sI01
I1
stp1794
Rp1795
(dp1796
g19
I45
sg27
Nsg28
Nsg29
Nsbsg30
I3
sg31
F46.5
sbs(g8
g543
tp1797
g0
(g14
g2
Ntp1798
Rp1799
(dp1800
g18
F0.5
sg19
I45
sg20
g0
(g21
g22
(dp1801
I00
I23
sI01
I22
stp1802
Rp1803
(dp1804
g19
I45
sg27
Nsg28
Nsg29
Nsbsg30
I3
sg31
F46.5
sbs(g8
g257
tp1805
g0
(g14
g2
Ntp1806
Rp1807
(dp1808
g18
F0.5
sg19
I45
sg20
g0
(g21
g22
(dp1809
I01
I45
stp1810
Rp1811
(dp1812
g19
I45
sg27
Nsg28
Nsg29
Nsbsg30
I2
sg31
F46.0
sbs(g9
S'wrd:have>0'
p1813
tp1814
g0
(g14
g2
Ntp1815
Rp1816
(dp1817
g18
F0.5
sg19
I45
sg20
g0
(g21
g22
(dp1818
I00
I7
sI01
I38
stp1819
Rp1820
(dp1821
g19
I45
sg27
Nsg28
Nsg29
Nsbsg30
I3
sg31
F46.5
sbs(g8
g1748
tp1822
g0
(g14
g2
Ntp1823
Rp1824
(dp1825
g18
F0.5
sg19
I45
sg20
g0
(g21
g22
(dp1826
I00
I45
stp1827
Rp1828
(dp1829
g19
I45
sg27
Nsg28
Nsg29
Nsbsg30
I3
sg31
F46.5
sbs(g9
g381
tp1830
g0
(g14
g2
Ntp1831
Rp1832
(dp1833
g18
F0.5
sg19
I45
sg20
g0
(g21
g22
(dp1834
I00
I2
sI01
I43
stp1835
Rp1836
(dp1837
g19
I45
sg27
Nsg28
Nsg29
Nsbsg30
I3
sg31
F46.5
sbs(g9
g561
tp1838
g0
(g14
g2
Ntp1839
Rp1840
(dp1841
g18
F0.5
sg19
I45
sg20
g0
(g21
g22
(dp1842
I00
I23
sI01
I22
stp1843
Rp1844
(dp1845
g19
I45
sg27
Nsg28
Nsg29
Nsbsg30
I3
sg31
F46.5
sbs(g8
g762
tp1846
g0
(g14
g2
Ntp1847
Rp1848
(dp1849
g18
F0.5
sg19
I45
sg20
g0
(g21
g22
(dp1850
I00
I27
sI01
I18
stp1851
Rp1852
(dp1853
g19
I45
sg27
Nsg28
Nsg29
Nsbsg30
I3
sg31
F46.5
sbs(g9
S'skip:(,,,,,)>0'
p1854
tp1855
g0
(g14
g2
Ntp1856
Rp1857
(dp1858
g18
F0.5
sg19
I45
sg20
g0
(g21
g22
(dp1859
I00
I38
sI01
I7
stp1860
Rp1861
(dp1862
g19
I45
sg27
Nsg28
Nsg29
Nsbsg30
I3
sg31
F46.5
sbs(g8
g1571
tp1863
g0
(g14
g2
Ntp1864
Rp1865
(dp1866
g18
F0.5
sg19
I45
sg20
g0
(g21
g22
(dp1867
I00
I45
stp1868
Rp1869
(dp1870
g19
I45
sg27
Nsg28
Nsg29
Nsbsg30
I3
sg31
F46.5
sbs(g9
g1454
tp1871
g0
(g14
g2
Ntp1872
Rp1873
(dp1874
g18
F0.5
sg19
I45
sg20
g0
(g21
g22
(dp1875
I00
I42
sI01
I3
stp1876
Rp1877
(dp1878
g19
I45
sg27
Nsg28
Nsg29
Nsbsg30
I3
sg31
F46.5
sbs(g8
g1069
tp1879
g0
(g14
g2
Ntp1880
Rp1881
(dp1882
g18
F0.5
sg19
I45
sg20
g0
(g21
g22
(dp1883
I00
I45
stp1884
Rp1885
(dp1886
g19
I45
sg27
Nsg28
Nsg29
Nsbsg30
I3
sg31
F46.5
sbs(g8
g947
tp1887
g0
(g14
g2
Ntp1888
Rp1889
(dp1890
g18
F0.5
sg19
I45
sg20
g0
(g21
g22
(dp1891
I00
I45
stp1892
Rp1893
(dp1894
g19
I45
sg27
Nsg28
Nsg29
Nsbsg30
I2
sg31
F46.0
sbs(g8
g86
tp1895
g0
(g14
g2
Ntp1896
Rp1897
(dp1898
g18
F0.5
sg19
I45
sg20
g0
(g21
g22
(dp1899
I00
I6
sI01
I39
stp1900
Rp1901
(dp1902
g19
I45
sg27
Nsg28
Nsg29
Nsbsg30
I3
sg31
F46.5
sbs(g8
g462
tp1903
g0
(g14
g2
Ntp1904
Rp1905
(dp1906
g18
F0.5
sg19
I45
sg20
g0
(g21
g22
(dp1907
I00
I41
sI01
I4
stp1908
Rp1909
(dp1910
g19
I45
sg27
Nsg28
Nsg29
Nsbsg30
I3
sg31
F46.5
sbs(g9
S'skip:(and,unreadable,password)>0'
p1911
tp1912
g0
(g14
g2
Ntp1913
Rp1914
(dp1915
g18
F0.5
sg19
I45
sg20
g0
(g21
g22
(dp1916
I00
I45
stp1917
Rp1918
(dp1919
g19
I45
sg27
Nsg28
Nsg29
Nsbsg30
I3
sg31
F46.5
sbs(g8
S'wrd:said>0'
p1920
tp1921
g0
(g14
g2
Ntp1922
Rp1923
(dp1924
g18
F0.5
sg19
I45
sg20
g0
(g21
g22
(dp1925
I01
I45
stp1926
Rp1927
(dp1928
g19
I45
sg27
Nsg28
Nsg29
Nsbsg30
I3
sg31
F46.5
sbs(g8
g435
tp1929
g0
(g14
g2
Ntp1930
Rp1931
(dp1932
g18
F0.5
sg19
I45
sg20
g0
(g21
g22
(dp1933
I00
I45
stp1934
Rp1935
(dp1936
g19
I45
sg27
Nsg28
Nsg29
Nsbsg30
I3
sg31
F46.5
sbs(g8
g1664
tp1937
g0
(g14
g2
Ntp1938
Rp1939
(dp1940
g18
F0.5
sg19
I45
sg20
g0
(g21
g22
(dp1941
I01
I45
stp1942
Rp1943
(dp1944
g19
I45
sg27
Nsg28
Nsg29
Nsbsg30
I2
sg31
F46.0
sbs(g9
g1638
tp1945
g0
(g14
g2
Ntp1946
Rp1947
(dp1948
g18
F0.5
sg19
I45
sg20
g0
(g21
g22
(dp1949
I00
I44
sI01
I1
stp1950
Rp1951
(dp1952
g19
I45
sg27
Nsg28
Nsg29
Nsbsg30
I3
sg31
F46.5
sbs(g9
g1146
tp1953
g0
(g14
g2
Ntp1954
Rp1955
(dp1956
g18
F0.5
sg19
I45
sg20
g0
(g21
g22
(dp1957
I00
I20
sI01
I25
stp1958
Rp1959
(dp1960
g19
I45
sg27
Nsg28
Nsg29
Nsbsg30
I3
sg31
F46.5
sbs(g9
g1731
tp1961
g0
(g14
g2
Ntp1962
Rp1963
(dp1964
g18
F0.5
sg19
I45
sg20
g0
(g21
g22
(dp1965
I00
I16
sI01
I29
stp1966
Rp1967
(dp1968
g19
I45
sg27
Nsg28
Nsg29
Nsbsg30
I3
sg31
F46.5
sbs(g8
g248
tp1969
g0
(g14
g2
Ntp1970
Rp1971
(dp1972
g18
F0.5
sg19
I45
sg20
g0
(g21
g22
(dp1973
I00
I5
sI01
I40
stp1974
Rp1975
(dp1976
g19
I45
sg27
Nsg28
Nsg29
Nsbsg30
I3
sg31
F46.5
sbs(g8
g1128
tp1977
g0
(g14
g2
Ntp1978
Rp1979
(dp1980
g18
F0.5
sg19
I45
sg20
g0
(g21
g22
(dp1981
I00
I39
sI01
I6
stp1982
Rp1983
(dp1984
g19
I45
sg27
Nsg28
Nsg29
Nsbsg30
I3
sg31
F46.5
sbs(g9
g1017
tp1985
g0
(g14
g2
Ntp1986
Rp1987
(dp1988
g18
F0.5
sg19
I45
sg20
g0
(g21
g22
(dp1989
I00
I38
sI01
I7
stp1990
Rp1991
(dp1992
g19
I45
sg27
Nsg28
Nsg29
Nsbsg30
I3
sg31
F46.5
sbs(g9
g149
tp1993
g0
(g14
g2
Ntp1994
Rp1995
(dp1996
g18
F0.5
sg19
I45
sg20
g0
(g21
g22
(dp1997
I00
I45
stp1998
Rp1999
(dp2000
g19
I45
sg27
Nsg28
Nsg29
Nsbsg30
I3
sg31
F46.5
sbs(g9
g12
tp2001
g0
(g14
g2
Ntp2002
Rp2003
(dp2004
g18
F0.5
sg19
I45
sg20
g0
(g21
g22
(dp2005
I00
I45
stp2006
Rp2007
(dp2008
g19
I45
sg27
Nsg28
Nsg29
Nsbsg30
I3
sg31
F46.5
sbs(g9
S'bi:(analysts,said)>0'
p2009
tp2010
g0
(g14
g2
Ntp2011
Rp2012
(dp2013
g18
F0.5
sg19
I45
sg20
g0
(g21
g22
(dp2014
I00
I30
sI01
I15
stp2015
Rp2016
(dp2017
g19
I45
sg27
Nsg28
Nsg29
Nsbsg30
I3
sg31
F46.5
sbs(g9
g1078
tp2018
g0
(g14
g2
Ntp2019
Rp2020
(dp2021
g18
F0.5
sg19
I45
sg20
g0
(g21
g22
(dp2022
I00
I44
sI01
I1
stp2023
Rp2024
(dp2025
g19
I45
sg27
Nsg28
Nsg29
Nsbsg30
I3
sg31
F46.5
sbs(g9
S"skip:('',.,,)>0"
p2026
tp2027
g0
(g14
g2
Ntp2028
Rp2029
(dp2030
g18
F0.5
sg19
I45
sg20
g0
(g21
g22
(dp2031
I00
I45
stp2032
Rp2033
(dp2034
g19
I45
sg27
Nsg28
Nsg29
Nsbsg30
I3
sg31
F46.5
sbs(g8
g1342
tp2035
g0
(g14
g2
Ntp2036
Rp2037
(dp2038
g18
F0.5
sg19
I45
sg20
g0
(g21
g22
(dp2039
I00
I20
sI01
I25
stp2040
Rp2041
(dp2042
g19
I45
sg27
Nsg28
Nsg29
Nsbsg30
I3
sg31
F46.5
sbs(g9
S'bi:(from,the)>0'
p2043
tp2044
g0
(g14
g2
Ntp2045
Rp2046
(dp2047
g18
F0.5
sg19
I45
sg20
g0
(g21
g22
(dp2048
I00
I20
sI01
I25
stp2049
Rp2050
(dp2051
g19
I45
sg27
Nsg28
Nsg29
Nsbsg30
I3
sg31
F46.5
sbs(g9
g1705
tp2052
g0
(g14
g2
Ntp2053
Rp2054
(dp2055
g18
F0.5
sg19
I45
sg20
g0
(g21
g22
(dp2056
I00
I40
sI01
I5
stp2057
Rp2058
(dp2059
g19
I45
sg27
Nsg28
Nsg29
Nsbsg30
I3
sg31
F46.5
sbs(g9
g992
tp2060
g0
(g14
g2
Ntp2061
Rp2062
(dp2063
g18
F0.5
sg19
I45
sg20
g0
(g21
g22
(dp2064
I00
I36
sI01
I9
stp2065
Rp2066
(dp2067
g19
I45
sg27
Nsg28
Nsg29
Nsbsg30
I3
sg31
F46.5
sbs(g8
g930
tp2068
g0
(g14
g2
Ntp2069
Rp2070
(dp2071
g18
F0.5
sg19
I45
sg20
g0
(g21
g22
(dp2072
I00
I38
sI01
I7
stp2073
Rp2074
(dp2075
g19
I45
sg27
Nsg28
Nsg29
Nsbsg30
I3
sg31
F46.5
sbs(g9
S'tri:(,,according,to)>0'
p2076
tp2077
g0
(g14
g2
Ntp2078
Rp2079
(dp2080
g18
F0.5
sg19
I45
sg20
g0
(g21
g22
(dp2081
I00
I45
stp2082
Rp2083
(dp2084
g19
I45
sg27
Nsg28
Nsg29
Nsbsg30
I3
sg31
F46.5
sbs(g8
g59
tp2085
g0
(g14
g2
Ntp2086
Rp2087
(dp2088
g18
F0.5
sg19
I45
sg20
g0
(g21
g22
(dp2089
I00
I6
sI01
I39
stp2090
Rp2091
(dp2092
g19
I45
sg27
Nsg28
Nsg29
Nsbsg30
I3
sg31
F46.5
sbs(g9
g1256
tp2093
g0
(g14
g2
Ntp2094
Rp2095
(dp2096
g18
F0.5
sg19
I45
sg20
g0
(g21
g22
(dp2097
I00
I26
sI01
I19
stp2098
Rp2099
(dp2100
g19
I45
sg27
Nsg28
Nsg29
Nsbsg30
I3
sg31
F46.5
sbs(g8
g212
tp2101
g0
(g14
g2
Ntp2102
Rp2103
(dp2104
g18
F0.5
sg19
I45
sg20
g0
(g21
g22
(dp2105
I00
I45
stp2106
Rp2107
(dp2108
g19
I45
sg27
Nsg28
Nsg29
Nsbsg30
I2
sg31
F46.0
sbs(g8
g798
tp2109
g0
(g14
g2
Ntp2110
Rp2111
(dp2112
g18
F0.5
sg19
I45
sg20
g0
(g21
g22
(dp2113
I00
I41
sI01
I4
stp2114
Rp2115
(dp2116
g19
I45
sg27
Nsg28
Nsg29
Nsbsg30
I3
sg31
F46.5
sbs(g8
g1230
tp2117
g0
(g14
g2
Ntp2118
Rp2119
(dp2120
g18
F0.5
sg19
I45
sg20
g0
(g21
g22
(dp2121
I00
I39
sI01
I6
stp2122
Rp2123
(dp2124
g19
I45
sg27
Nsg28
Nsg29
Nsbsg30
I3
sg31
F46.5
sbs(g8
g850
tp2125
g0
(g14
g2
Ntp2126
Rp2127
(dp2128
g18
F0.5
sg19
I45
sg20
g0
(g21
g22
(dp2129
I00
I45
stp2130
Rp2131
(dp2132
g19
I45
sg27
Nsg28
Nsg29
Nsbsg30
I3
sg31
F46.5
sbs(g8
g489
tp2133
g0
(g14
g2
Ntp2134
Rp2135
(dp2136
g18
F0.5
sg19
I45
sg20
g0
(g21
g22
(dp2137
I00
I41
sI01
I4
stp2138
Rp2139
(dp2140
g19
I45
sg27
Nsg28
Nsg29
Nsbsg30
I3
sg31
F46.5
sbs(g8
g657
tp2141
g0
(g14
g2
Ntp2142
Rp2143
(dp2144
g18
F0.5
sg19
I45
sg20
g0
(g21
g22
(dp2145
I00
I35
sI01
I10
stp2146
Rp2147
(dp2148
g19
I45
sg27
Nsg28
Nsg29
Nsbsg30
I3
sg31
F46.5
sbs(g9
g194
tp2149
g0
(g14
g2
Ntp2150
Rp2151
(dp2152
g18
F0.5
sg19
I45
sg20
g0
(g21
g22
(dp2153
I00
I16
sI01
I29
stp2154
Rp2155
(dp2156
g19
I45
sg27
Nsg28
Nsg29
Nsbsg30
I3
sg31
F46.5
sbs(g9
g640
tp2157
g0
(g14
g2
Ntp2158
Rp2159
(dp2160
g18
F0.5
sg19
I45
sg20
g0
(g21
g22
(dp2161
I00
I39
sI01
I6
stp2162
Rp2163
(dp2164
g19
I45
sg27
Nsg28
Nsg29
Nsbsg30
I3
sg31
F46.5
sbs(g9
S'skip:(april,;,()>0'
p2165
tp2166
g0
(g14
g2
Ntp2167
Rp2168
(dp2169
g18
F0.5
sg19
I45
sg20
g0
(g21
g22
(dp2170
I00
I40
sI01
I5
stp2171
Rp2172
(dp2173
g19
I45
sg27
Nsg28
Nsg29
Nsbsg30
I3
sg31
F46.5
sbs(g8
S"tri:(,,'',the)>0"
p2174
tp2175
g0
(g14
g2
Ntp2176
Rp2177
(dp2178
g18
F0.5
sg19
I45
sg20
g0
(g21
g22
(dp2179
I00
I36
sI01
I9
stp2180
Rp2181
(dp2182
g19
I45
sg27
Nsg28
Nsg29
Nsbsg30
I3
sg31
F46.5
sbs(g8
S'wrd:``>0'
p2183
tp2184
g0
(g14
g2
Ntp2185
Rp2186
(dp2187
g18
F0.5
sg19
I45
sg20
g0
(g21
g22
(dp2188
I00
I45
stp2189
Rp2190
(dp2191
g19
I45
sg27
Nsg28
Nsg29
Nsbsg30
I2
sg31
F46.0
sbs(g9
g832
tp2192
g0
(g14
g2
Ntp2193
Rp2194
(dp2195
g18
F0.5
sg19
I45
sg20
g0
(g21
g22
(dp2196
I00
I45
stp2197
Rp2198
(dp2199
g19
I45
sg27
Nsg28
Nsg29
Nsbsg30
I3
sg31
F46.5
sbs(g8
g2043
tp2200
g0
(g14
g2
Ntp2201
Rp2202
(dp2203
g18
F0.5
sg19
I45
sg20
g0
(g21
g22
(dp2204
I00
I31
sI01
I14
stp2205
Rp2206
(dp2207
g19
I45
sg27
Nsg28
Nsg29
Nsbsg30
I3
sg31
F46.5
sbs(g8
g1171
tp2208
g0
(g14
g2
Ntp2209
Rp2210
(dp2211
g18
F0.5
sg19
I45
sg20
g0
(g21
g22
(dp2212
I01
I45
stp2213
Rp2214
(dp2215
g19
I45
sg27
Nsg28
Nsg29
Nsbsg30
I2
sg31
F46.0
sbs(g9
g717
tp2216
g0
(g14
g2
Ntp2217
Rp2218
(dp2219
g18
F0.5
sg19
I45
sg20
g0
(g21
g22
(dp2220
I00
I26
sI01
I19
stp2221
Rp2222
(dp2223
g19
I45
sg27
Nsg28
Nsg29
Nsbsg30
I3
sg31
F46.5
sbs(g9
S'tri:(--,prague,newsroom)>0'
p2224
tp2225
g0
(g14
g2
Ntp2226
Rp2227
(dp2228
g18
F0.5
sg19
I45
sg20
g0
(g21
g22
(dp2229
I00
I29
sI01
I16
stp2230
Rp2231
(dp2232
g19
I45
sg27
Nsg28
Nsg29
Nsbsg30
I3
sg31
F46.5
sbs(g9
g203
tp2233
g0
(g14
g2
Ntp2234
Rp2235
(dp2236
g18
F0.5
sg19
I45
sg20
g0
(g21
g22
(dp2237
I00
I34
sI01
I11
stp2238
Rp2239
(dp2240
g19
I45
sg27
Nsg28
Nsg29
Nsbsg30
I3
sg31
F46.5
sbs(g8
g1911
tp2241
g0
(g14
g2
Ntp2242
Rp2243
(dp2244
g18
F0.5
sg19
I45
sg20
g0
(g21
g22
(dp2245
I00
I41
sI01
I4
stp2246
Rp2247
(dp2248
g19
I45
sg27
Nsg28
Nsg29
Nsbsg30
I3
sg31
F46.5
sbs(g9
g1920
tp2249
g0
(g14
g2
Ntp2250
Rp2251
(dp2252
g18
F0.5
sg19
I45
sg20
g0
(g21
g22
(dp2253
I00
I1
sI01
I44
stp2254
Rp2255
(dp2256
g19
I45
sg27
Nsg28
Nsg29
Nsbsg30
I3
sg31
F46.5
sbs(g8
g1221
tp2257
g0
(g14
g2
Ntp2258
Rp2259
(dp2260
g18
F0.5
sg19
I45
sg20
g0
(g21
g22
(dp2261
I00
I25
sI01
I20
stp2262
Rp2263
(dp2264
g19
I45
sg27
Nsg28
Nsg29
Nsbsg30
I3
sg31
F46.5
sbs(g8
g868
tp2265
g0
(g14
g2
Ntp2266
Rp2267
(dp2268
g18
F0.5
sg19
I45
sg20
g0
(g21
g22
(dp2269
I00
I9
sI01
I36
stp2270
Rp2271
(dp2272
g19
I45
sg27
Nsg28
Nsg29
Nsbsg30
I3
sg31
F46.5
sbs(g8
g2026
tp2273
g0
(g14
g2
Ntp2274
Rp2275
(dp2276
g18
F0.5
sg19
I45
sg20
g0
(g21
g22
(dp2277
I00
I39
sI01
I6
stp2278
Rp2279
(dp2280
g19
I45
sg27
Nsg28
Nsg29
Nsbsg30
I3
sg31
F46.5
sbs(g8
S'tri:(in,the,second)>0'
p2281
tp2282
g0
(g14
g2
Ntp2283
Rp2284
(dp2285
g18
F0.5
sg19
I45
sg20
g0
(g21
g22
(dp2286
I00
I45
stp2287
Rp2288
(dp2289
g19
I45
sg27
Nsg28
Nsg29
Nsbsg30
I3
sg31
F46.5
sbs(g9
g1521
tp2290
g0
(g14
g2
Ntp2291
Rp2292
(dp2293
g18
F0.5
sg19
I45
sg20
g0
(g21
g22
(dp2294
I00
I3
sI01
I42
stp2295
Rp2296
(dp2297
g19
I45
sg27
Nsg28
Nsg29
Nsbsg30
I3
sg31
F46.5
sbs(g9
S'tri:(.,under,the)>0'
p2298
tp2299
g0
(g14
g2
Ntp2300
Rp2301
(dp2302
g18
F0.5
sg19
I45
sg20
g0
(g21
g22
(dp2303
I00
I44
sI01
I1
stp2304
Rp2305
(dp2306
g19
I45
sg27
Nsg28
Nsg29
Nsbsg30
I3
sg31
F46.5
sbs(g8
g1629
tp2307
g0
(g14
g2
Ntp2308
Rp2309
(dp2310
g18
F0.5
sg19
I45
sg20
g0
(g21
g22
(dp2311
I00
I4
sI01
I41
stp2312
Rp2313
(dp2314
g19
I45
sg27
Nsg28
Nsg29
Nsbsg30
I3
sg31
F46.5
sbs(g9
S'wrd:the>0'
p2315
tp2316
g0
(g14
g2
Ntp2317
Rp2318
(dp2319
g18
F0.5
sg19
I45
sg20
g0
(g21
g22
(dp2320
I01
I45
stp2321
Rp2322
(dp2323
g19
I45
sg27
Nsg28
Nsg29
Nsbsg30
I2
sg31
F46.0
sbs(g9
g453
tp2324
g0
(g14
g2
Ntp2325
Rp2326
(dp2327
g18
F0.5
sg19
I45
sg20
g0
(g21
g22
(dp2328
I00
I45
stp2329
Rp2330
(dp2331
g19
I45
sg27
Nsg28
Nsg29
Nsbsg30
I3
sg31
F46.5
sbs(g9
g2281
tp2332
g0
(g14
g2
Ntp2333
Rp2334
(dp2335
g18
F0.5
sg19
I45
sg20
g0
(g21
g22
(dp2336
I00
I25
sI01
I20
stp2337
Rp2338
(dp2339
g19
I45
sg27
Nsg28
Nsg29
Nsbsg30
I3
sg31
F46.5
sbs(g8
g1376
tp2340
g0
(g14
g2
Ntp2341
Rp2342
(dp2343
g18
F0.5
sg19
I45
sg20
g0
(g21
g22
(dp2344
I00
I24
sI01
I21
stp2345
Rp2346
(dp2347
g19
I45
sg27
Nsg28
Nsg29
Nsbsg30
I3
sg31
F46.5
sbs(g8
g841
tp2348
g0
(g14
g2
Ntp2349
Rp2350
(dp2351
g18
F0.5
sg19
I45
sg20
g0
(g21
g22
(dp2352
I00
I45
stp2353
Rp2354
(dp2355
g19
I45
sg27
Nsg28
Nsg29
Nsbsg30
I3
sg31
F46.5
sbs(g9
S'skip:(it,a,software)>0'
p2356
tp2357
g0
(g14
g2
Ntp2358
Rp2359
(dp2360
g18
F0.5
sg19
I45
sg20
g0
(g21
g22
(dp2361
I00
I45
stp2362
Rp2363
(dp2364
g19
I45
sg27
Nsg28
Nsg29
Nsbsg30
I3
sg31
F46.5
sbs(g8
g2076
tp2365
g0
(g14
g2
Ntp2366
Rp2367
(dp2368
g18
F0.5
sg19
I45
sg20
g0
(g21
g22
(dp2369
I00
I34
sI01
I11
stp2370
Rp2371
(dp2372
g19
I45
sg27
Nsg28
Nsg29
Nsbsg30
I3
sg31
F46.5
sbs(g8
S'tri:(newsroom,,,42-2-2423-0003)>0'
p2373
tp2374
g0
(g14
g2
Ntp2375
Rp2376
(dp2377
g18
F0.5
sg19
I45
sg20
g0
(g21
g22
(dp2378
I00
I45
stp2379
Rp2380
(dp2381
g19
I45
sg27
Nsg28
Nsg29
Nsbsg30
I3
sg31
F46.5
sbs(g9
g534
tp2382
g0
(g14
g2
Ntp2383
Rp2384
(dp2385
g18
F0.5
sg19
I45
sg20
g0
(g21
g22
(dp2386
I00
I45
stp2387
Rp2388
(dp2389
g19
I45
sg27
Nsg28
Nsg29
Nsbsg30
I3
sg31
F46.5
sbs(g8
g974
tp2390
g0
(g14
g2
Ntp2391
Rp2392
(dp2393
g18
F0.5
sg19
I45
sg20
g0
(g21
g22
(dp2394
I00
I32
sI01
I13
stp2395
Rp2396
(dp2397
g19
I45
sg27
Nsg28
Nsg29
Nsbsg30
I3
sg31
F46.5
sbs(g8
g293
tp2398
g0
(g14
g2
Ntp2399
Rp2400
(dp2401
g18
F0.5
sg19
I45
sg20
g0
(g21
g22
(dp2402
I00
I42
sI01
I3
stp2403
Rp2404
(dp2405
g19
I45
sg27
Nsg28
Nsg29
Nsbsg30
I3
sg31
F46.5
sbs(g9
g354
tp2406
g0
(g14
g2
Ntp2407
Rp2408
(dp2409
g18
F0.5
sg19
I45
sg20
g0
(g21
g22
(dp2410
I00
I44
sI01
I1
stp2411
Rp2412
(dp2413
g19
I45
sg27
Nsg28
Nsg29
Nsbsg30
I3
sg31
F46.5
sbs(g9
g2183
tp2414
g0
(g14
g2
Ntp2415
Rp2416
(dp2417
g18
F0.5
sg19
I45
sg20
g0
(g21
g22
(dp2418
I00
I45
stp2419
Rp2420
(dp2421
g19
I45
sg27
Nsg28
Nsg29
Nsbsg30
I2
sg31
F46.0
sbs(g9
g158
tp2422
g0
(g14
g2
Ntp2423
Rp2424
(dp2425
g18
F0.5
sg19
I45
sg20
g0
(g21
g22
(dp2426
I00
I15
sI01
I30
stp2427
Rp2428
(dp2429
g19
I45
sg27
Nsg28
Nsg29
Nsbsg30
I3
sg31
F46.5
sbs(g9
S'skip:(said,,,the)>0'
p2430
tp2431
g0
(g14
g2
Ntp2432
Rp2433
(dp2434
g18
F0.5
sg19
I45
sg20
g0
(g21
g22
(dp2435
I00
I44
sI01
I1
stp2436
Rp2437
(dp2438
g19
I45
sg27
Nsg28
Nsg29
Nsbsg30
I3
sg31
F46.5
sbs(g8
g2430
tp2439
g0
(g14
g2
Ntp2440
Rp2441
(dp2442
g18
F0.5
sg19
I45
sg20
g0
(g21
g22
(dp2443
I00
I31
sI01
I14
stp2444
Rp2445
(dp2446
g19
I45
sg27
Nsg28
Nsg29
Nsbsg30
I3
sg31
F46.5
sbs(g8
g2009
tp2447
g0
(g14
g2
Ntp2448
Rp2449
(dp2450
g18
F0.5
sg19
I45
sg20
g0
(g21
g22
(dp2451
I00
I44
sI01
I1
stp2452
Rp2453
(dp2454
g19
I45
sg27
Nsg28
Nsg29
Nsbsg30
I3
sg31
F46.5
sbs(g8
g1060
tp2455
g0
(g14
g2
Ntp2456
Rp2457
(dp2458
g18
F0.5
sg19
I45
sg20
g0
(g21
g22
(dp2459
I00
I10
sI01
I35
stp2460
Rp2461
(dp2462
g19
I45
sg27
Nsg28
Nsg29
Nsbsg30
I3
sg31
F46.5
sbs(g8
g1026
tp2463
g0
(g14
g2
Ntp2464
Rp2465
(dp2466
g18
F0.5
sg19
I45
sg20
g0
(g21
g22
(dp2467
I00
I26
sI01
I19
stp2468
Rp2469
(dp2470
g19
I45
sg27
Nsg28
Nsg29
Nsbsg30
I3
sg31
F46.5
sbs(g8
g444
tp2471
g0
(g14
g2
Ntp2472
Rp2473
(dp2474
g18
F0.5
sg19
I45
sg20
g0
(g21
g22
(dp2475
I00
I22
sI01
I23
stp2476
Rp2477
(dp2478
g19
I45
sg27
Nsg28
Nsg29
Nsbsg30
I3
sg31
F46.5
sbs(g8
g904
tp2479
g0
(g14
g2
Ntp2480
Rp2481
(dp2482
g18
F0.5
sg19
I45
sg20
g0
(g21
g22
(dp2483
I00
I18
sI01
I27
stp2484
Rp2485
(dp2486
g19
I45
sg27
Nsg28
Nsg29
Nsbsg30
I3
sg31
F46.5
sbs(g9
g675
tp2487
g0
(g14
g2
Ntp2488
Rp2489
(dp2490
g18
F0.5
sg19
I45
sg20
g0
(g21
g22
(dp2491
I00
I28
sI01
I17
stp2492
Rp2493
(dp2494
g19
I45
sg27
Nsg28
Nsg29
Nsbsg30
I3
sg31
F46.5
sbs(g8
g417
tp2495
g0
(g14
g2
Ntp2496
Rp2497
(dp2498
g18
F0.5
sg19
I45
sg20
g0
(g21
g22
(dp2499
I00
I14
sI01
I31
stp2500
Rp2501
(dp2502
g19
I45
sg27
Nsg28
Nsg29
Nsbsg30
I3
sg31
F46.5
sbs(g8
g2356
tp2503
g0
(g14
g2
Ntp2504
Rp2505
(dp2506
g18
F0.5
sg19
I45
sg20
g0
(g21
g22
(dp2507
I00
I41
sI01
I4
stp2508
Rp2509
(dp2510
g19
I45
sg27
Nsg28
Nsg29
Nsbsg30
I3
sg31
F46.5
sbs(g9
g1137
tp2511
g0
(g14
g2
Ntp2512
Rp2513
(dp2514
g18
F0.5
sg19
I45
sg20
g0
(g21
g22
(dp2515
I00
I45
stp2516
Rp2517
(dp2518
g19
I45
sg27
Nsg28
Nsg29
Nsbsg30
I3
sg31
F46.5
sbs(g8
S'bi:(,,the)>0'
p2519
tp2520
g0
(g14
g2
Ntp2521
Rp2522
(dp2523
g18
F0.5
sg19
I45
sg20
g0
(g21
g22
(dp2524
I00
I11
sI01
I34
stp2525
Rp2526
(dp2527
g19
I45
sg27
Nsg28
Nsg29
Nsbsg30
I3
sg31
F46.5
sbs(g8
g2298
tp2528
g0
(g14
g2
Ntp2529
Rp2530
(dp2531
g18
F0.5
sg19
I45
sg20
g0
(g21
g22
(dp2532
I00
I35
sI01
I10
stp2533
Rp2534
(dp2535
g19
I45
sg27
Nsg28
Nsg29
Nsbsg30
I3
sg31
F46.5
sbs(g9
g1111
tp2536
g0
(g14
g2
Ntp2537
Rp2538
(dp2539
g18
F0.5
sg19
I45
sg20
g0
(g21
g22
(dp2540
I00
I36
sI01
I9
stp2541
Rp2542
(dp2543
g19
I45
sg27
Nsg28
Nsg29
Nsbsg30
I3
sg31
F46.5
sbs(g9
g1239
tp2544
g0
(g14
g2
Ntp2545
Rp2546
(dp2547
g18
F0.5
sg19
I45
sg20
g0
(g21
g22
(dp2548
I00
I38
sI01
I7
stp2549
Rp2550
(dp2551
g19
I45
sg27
Nsg28
Nsg29
Nsbsg30
I3
sg31
F46.5
sbs(g8
g426
tp2552
g0
(g14
g2
Ntp2553
Rp2554
(dp2555
g18
F0.5
sg19
I45
sg20
g0
(g21
g22
(dp2556
I00
I45
stp2557
Rp2558
(dp2559
g19
I45
sg27
Nsg28
Nsg29
Nsbsg30
I3
sg31
F46.5
sbs(g9
g2519
tp2560
g0
(g14
g2
Ntp2561
Rp2562
(dp2563
g18
F0.5
sg19
I45
sg20
g0
(g21
g22
(dp2564
I00
I20
sI01
I25
stp2565
Rp2566
(dp2567
g19
I45
sg27
Nsg28
Nsg29
Nsbsg30
I3
sg31
F46.5
sbs(g8
S'skip:(scramble,render,without)>0'
p2568
tp2569
g0
(g14
g2
Ntp2570
Rp2571
(dp2572
g18
F0.5
sg19
I45
sg20
g0
(g21
g22
(dp2573
I00
I41
sI01
I4
stp2574
Rp2575
(dp2576
g19
I45
sg27
Nsg28
Nsg29
Nsbsg30
I3
sg31
F46.5
sbs(g9
g1714
tp2577
g0
(g14
g2
Ntp2578
Rp2579
(dp2580
g18
F0.5
sg19
I45
sg20
g0
(g21
g22
(dp2581
I00
I32
sI01
I13
stp2582
Rp2583
(dp2584
g19
I45
sg27
Nsg28
Nsg29
Nsbsg30
I3
sg31
F46.5
sbs(g9
g2568
tp2585
g0
(g14
g2
Ntp2586
Rp2587
(dp2588
g18
F0.5
sg19
I45
sg20
g0
(g21
g22
(dp2589
I00
I45
stp2590
Rp2591
(dp2592
g19
I45
sg27
Nsg28
Nsg29
Nsbsg30
I3
sg31
F46.5
sbs(g8
S'skip:(the,of,,)>0'
p2593
tp2594
g0
(g14
g2
Ntp2595
Rp2596
(dp2597
g18
F0.5
sg19
I45
sg20
g0
(g21
g22
(dp2598
I00
I40
sI01
I5
stp2599
Rp2600
(dp2601
g19
I45
sg27
Nsg28
Nsg29
Nsbsg30
I3
sg31
F46.5
sbs(g8
g2315
tp2602
g0
(g14
g2
Ntp2603
Rp2604
(dp2605
g18
F0.5
sg19
I45
sg20
g0
(g21
g22
(dp2606
I01
I45
stp2607
Rp2608
(dp2609
g19
I45
sg27
Nsg28
Nsg29
Nsbsg30
I2
sg31
F46.0
sbs(g9
g1035
tp2610
g0
(g14
g2
Ntp2611
Rp2612
(dp2613
g18
F0.5
sg19
I45
sg20
g0
(g21
g22
(dp2614
I00
I32
sI01
I13
stp2615
Rp2616
(dp2617
g19
I45
sg27
Nsg28
Nsg29
Nsbsg30
I3
sg31
F46.5
sbs(g8
g631
tp2618
g0
(g14
g2
Ntp2619
Rp2620
(dp2621
g18
F0.5
sg19
I45
sg20
g0
(g21
g22
(dp2622
I00
I40
sI01
I5
stp2623
Rp2624
(dp2625
g19
I45
sg27
Nsg28
Nsg29
Nsbsg30
I3
sg31
F46.5
sbs(g9
g1655
tp2626
g0
(g14
g2
Ntp2627
Rp2628
(dp2629
g18
F0.5
sg19
I45
sg20
g0
(g21
g22
(dp2630
I00
I42
sI01
I3
stp2631
Rp2632
(dp2633
g19
I45
sg27
Nsg28
Nsg29
Nsbsg30
I3
sg31
F46.5
sbs(g8
g2224
tp2634
g0
(g14
g2
Ntp2635
Rp2636
(dp2637
g18
F0.5
sg19
I45
sg20
g0
(g21
g22
(dp2638
I00
I45
stp2639
Rp2640
(dp2641
g19
I45
sg27
Nsg28
Nsg29
Nsbsg30
I3
sg31
F46.5
sbs(g9
g1403
tp2642
g0
(g14
g2
Ntp2643
Rp2644
(dp2645
g18
F0.5
sg19
I45
sg20
g0
(g21
g22
(dp2646
I00
I38
sI01
I7
stp2647
Rp2648
(dp2649
g19
I45
sg27
Nsg28
Nsg29
Nsbsg30
I3
sg31
F46.5
sbs(g8
g68
tp2650
g0
(g14
g2
Ntp2651
Rp2652
(dp2653
g18
F0.5
sg19
I45
sg20
g0
(g21
g22
(dp2654
I00
I33
sI01
I12
stp2655
Rp2656
(dp2657
g19
I45
sg27
Nsg28
Nsg29
Nsbsg30
I3
sg31
F46.5
sbs(g9
g2373
tp2658
g0
(g14
g2
Ntp2659
Rp2660
(dp2661
g18
F0.5
sg19
I45
sg20
g0
(g21
g22
(dp2662
I00
I44
sI01
I1
stp2663
Rp2664
(dp2665
g19
I45
sg27
Nsg28
Nsg29
Nsbsg30
I3
sg31
F46.5
sbs(g8
g131
tp2666
g0
(g14
g2
Ntp2667
Rp2668
(dp2669
g18
F0.5
sg19
I45
sg20
g0
(g21
g22
(dp2670
I00
I45
stp2671
Rp2672
(dp2673
g19
I45
sg27
Nsg28
Nsg29
Nsbsg30
I3
sg31
F46.5
sbs(g8
g1307
tp2674
g0
(g14
g2
Ntp2675
Rp2676
(dp2677
g18
F0.5
sg19
I45
sg20
g0
(g21
g22
(dp2678
I00
I35
sI01
I10
stp2679
Rp2680
(dp2681
g19
I45
sg27
Nsg28
Nsg29
Nsbsg30
I3
sg31
F46.5
sbs(g8
g480
tp2682
g0
(g14
g2
Ntp2683
Rp2684
(dp2685
g18
F0.5
sg19
I45
sg20
g0
(g21
g22
(dp2686
I00
I6
sI01
I39
stp2687
Rp2688
(dp2689
g19
I45
sg27
Nsg28
Nsg29
Nsbsg30
I3
sg31
F46.5
sbs(g9
g2593
tp2690
g0
(g14
g2
Ntp2691
Rp2692
(dp2693
g18
F0.5
sg19
I45
sg20
g0
(g21
g22
(dp2694
I00
I38
sI01
I7
stp2695
Rp2696
(dp2697
g19
I45
sg27
Nsg28
Nsg29
Nsbsg30
I3
sg31
F46.5
sbs(g8
g1813
tp2698
g0
(g14
g2
Ntp2699
Rp2700
(dp2701
g18
F0.5
sg19
I45
sg20
g0
(g21
g22
(dp2702
I00
I6
sI01
I39
stp2703
Rp2704
(dp2705
g19
I45
sg27
Nsg28
Nsg29
Nsbsg30
I3
sg31
F46.5
sbs(g8
g1290
tp2706
g0
(g14
g2
Ntp2707
Rp2708
(dp2709
g18
F0.5
sg19
I45
sg20
g0
(g21
g22
(dp2710
I00
I18
sI01
I27
stp2711
Rp2712
(dp2713
g19
I45
sg27
Nsg28
Nsg29
Nsbsg30
I3
sg31
F46.5
sbs(g8
g310
tp2714
g0
(g14
g2
Ntp2715
Rp2716
(dp2717
g18
F0.5
sg19
I45
sg20
g0
(g21
g22
(dp2718
I00
I1
sI01
I44
stp2719
Rp2720
(dp2721
g19
I45
sg27
Nsg28
Nsg29
Nsbsg30
I3
sg31
F46.5
sbs(g8
g1854
tp2722
g0
(g14
g2
Ntp2723
Rp2724
(dp2725
g18
F0.5
sg19
I45
sg20
g0
(g21
g22
(dp2726
I00
I38
sI01
I7
stp2727
Rp2728
(dp2729
g19
I45
sg27
Nsg28
Nsg29
Nsbsg30
I3
sg31
F46.5
sbs(g9
g2174
tp2730
g0
(g14
g2
Ntp2731
Rp2732
(dp2733
g18
F0.5
sg19
I45
sg20
g0
(g21
g22
(dp2734
I00
I43
sI01
I2
stp2735
Rp2736
(dp2737
g19
I45
sg27
Nsg28
Nsg29
Nsbsg30
I3
sg31
F46.5
sbs(g8
g230
tp2738
g0
(g14
g2
Ntp2739
Rp2740
(dp2741
g18
F0.5
sg19
I45
sg20
g0
(g21
g22
(dp2742
I00
I45
stp2743
Rp2744
(dp2745
g19
I45
sg27
Nsg28
Nsg29
Nsbsg30
I3
sg31
F46.5
sbs(g8
g1367
tp2746
g0
(g14
g2
Ntp2747
Rp2748
(dp2749
g18
F0.5
sg19
I45
sg20
g0
(g21
g22
(dp2750
I00
I39
sI01
I6
stp2751
Rp2752
(dp2753
g19
I45
sg27
Nsg28
Nsg29
Nsbsg30
I3
sg31
F46.5
sbs(g8
g859
tp2754
g0
(g14
g2
Ntp2755
Rp2756
(dp2757
g18
F0.5
sg19
I45
sg20
g0
(g21
g22
(dp2758
I00
I39
sI01
I6
stp2759
Rp2760
(dp2761
g19
I45
sg27
Nsg28
Nsg29
Nsbsg30
I3
sg31
F46.5
sbs(g8
g372
tp2762
g0
(g14
g2
Ntp2763
Rp2764
(dp2765
g18
F0.5
sg19
I45
sg20
g0
(g21
g22
(dp2766
I00
I2
sI01
I43
stp2767
Rp2768
(dp2769
g19
I45
sg27
Nsg28
Nsg29
Nsbsg30
I3
sg31
F46.5
sbs(g9
g1596
tp2770
g0
(g14
g2
Ntp2771
Rp2772
(dp2773
g18
F0.5
sg19
I45
sg20
g0
(g21
g22
(dp2774
I00
I36
sI01
I9
stp2775
Rp2776
(dp2777
g19
I45
sg27
Nsg28
Nsg29
Nsbsg30
I3
sg31
F46.5
sbs(g8
g2165
tp2778
g0
(g14
g2
Ntp2779
Rp2780
(dp2781
g18
F0.5
sg19
I45
sg20
g0
(g21
g22
(dp2782
I00
I45
stp2783
Rp2784
(dp2785
g19
I45
sg27
Nsg28
Nsg29
Nsbsg30
I3
sg31
F46.5
sbs(g8
g239
tp2786
g0
(g14
g2
Ntp2787
Rp2788
(dp2789
g18
F0.5
sg19
I45
sg20
g0
(g21
g22
(dp2790
I00
I45
stp2791
Rp2792
(dp2793
g19
I45
sg27
Nsg28
Nsg29
Nsbsg30
I3
sg31
F46.5
sbssS'_label_probdist'
p2794
g0
(g14
g2
Ntp2795
Rp2796
(dp2797
g18
F0.5
sg19
I90
sg20
g0
(g21
g22
(dp2798
g9
I45
sg8
I45
stp2799
Rp2800
(dp2801
g19
I90
sg27
Nsg28
(lp2802
(g8
I45
tp2803
a(g9
I45
tp2804
asg29
Nsbsg30
I2
sg31
F91.0
sbsb.