(dp0
I2
F0.528
sI3
F0.655
sI4
F0.663
sI5
F0.649
sI6
F0.645
sI7
F0.683
sI8
F0.656
sI9
F0.6970000000000001
sI10
F0.654
sI11
F0.696
sI12
F0.683
sI13
F0.708
sI14
F0.6890000000000001
sI15
F0.6819999999999999
sI16
F0.6940000000000001
sI17
F0.683
sI18
F0.6859999999999999
sI19
F0.692
sI20
F0.674
sI21
F0.676
sI22
F0.6969999999999998
sI23
F0.7050000000000001
sI24
F0.712
sI25
F0.66
sI26
F0.7010000000000001
sI27
F0.671
sI28
F0.671
sI29
F0.696
s.