(dp0
I32
F0.7850000000000001
sI34
F0.7750000000000001
sI36
F0.8140000000000001
sI38
F0.7709999999999999
sI40
F0.7929999999999999
sI42
F0.778
sI44
F0.776
sI46
F0.7869999999999999
sI48
F0.8030000000000002
sI20
F0.7729999999999999
sI22
F0.7869999999999999
sI24
F0.78
sI26
F0.788
sI28
F0.782
sI30
F0.79
s.